_ZN12v8_inspector11V8Inspector6createEPN2v87IsolateEPNS_17V8InspectorClientE
_ZN12v8_inspector12StringBuffer6createENS_10StringViewE
_ZN12v8_inspector13V8ContextInfo18executionContextIdEN2v85LocalINS1_7ContextEEE
_ZN12v8_inspector14V8StackTraceId8ToStringEv
_ZN12v8_inspector14V8StackTraceIdC1ENS_10StringViewE
_ZN12v8_inspector14V8StackTraceIdC1EjNSt4__Cr4pairIxxEEb
_ZN12v8_inspector14V8StackTraceIdC1Ev
_ZN12v8_inspector18V8InspectorSession17canDispatchMethodENS_10StringViewE
_ZN12v8_inspector8protocol8Debugger3API6Paused10ReasonEnum12CSPViolationE
_ZN12v8_inspector8protocol8Debugger3API6Paused10ReasonEnum13EventListenerE
_ZN12v8_inspector8protocol8Debugger3API6Paused10ReasonEnum3DOME
_ZN12v8_inspector8protocol8Debugger3API6Paused10ReasonEnum3XHRE
_ZN2v810CpuProfile6DeleteEv
_ZN2v810Int16Array3NewENS_5LocalINS_11ArrayBufferEEEjj
_ZN2v810Int16Array3NewENS_5LocalINS_17SharedArrayBufferEEEjj
_ZN2v810Int32Array3NewENS_5LocalINS_11ArrayBufferEEEjj
_ZN2v810Int32Array3NewENS_5LocalINS_17SharedArrayBufferEEEjj
_ZN2v810StackTrace15CurrentScriptIdEPNS_7IsolateE
_ZN2v810StackTrace17CurrentStackTraceEPNS_7IsolateEiNS0_17StackTraceOptionsE
_ZN2v810StackTrace28CurrentScriptNameOrSourceURLEPNS_7IsolateE
_ZN2v810TypedArray6LengthEv
_ZN2v810Uint8Array3NewENS_5LocalINS_11ArrayBufferEEEjj
_ZN2v810Uint8Array3NewENS_5LocalINS_17SharedArrayBufferEEEjj
_ZN2v811ArrayBuffer12SetDetachKeyENS_5LocalINS_5ValueEEE
_ZN2v811ArrayBuffer15GetBackingStoreEv
_ZN2v811ArrayBuffer15NewBackingStoreEPvjPFvS1_jS1_ES1_
_ZN2v811ArrayBuffer24NewResizableBackingStoreEjj
_ZN2v811ArrayBuffer3NewEPNS_7IsolateENSt4__Cr10shared_ptrINS_12BackingStoreEEE
_ZN2v811ArrayBuffer3NewEPNS_7IsolateEjNS_30BackingStoreInitializationModeE
_ZN2v811ArrayBuffer6DetachENS_5LocalINS_5ValueEEE
_ZN2v811ArrayBuffer8MaybeNewEPNS_7IsolateEjNS_30BackingStoreInitializationModeE
_ZN2v811CpuProfiler13CollectSampleEPNS_7IsolateENSt4__Cr8optionalIyEE
_ZN2v811CpuProfiler13StopProfilingENS_5LocalINS_6StringEEE
_ZN2v811CpuProfiler14StartProfilingENS_5LocalINS_6StringEEENS_19CpuProfilingOptionsENSt4__Cr10unique_ptrINS_24DiscardedSamplesDelegateENS5_14default_deleteIS7_EEEE
_ZN2v811CpuProfiler19SetSamplingIntervalEi
_ZN2v811CpuProfiler3NewEPNS_7IsolateENS_22CpuProfilingNamingModeENS_23CpuProfilingLoggingModeE
_ZN2v811CpuProfiler7DisposeEv
_ZN2v811HandleScope16DeleteExtensionsEPNS_7IsolateE
_ZN2v811HandleScope6ExtendEPNS_7IsolateE
_ZN2v811Uint16Array3NewENS_5LocalINS_11ArrayBufferEEEjj
_ZN2v811Uint16Array3NewENS_5LocalINS_17SharedArrayBufferEEEjj
_ZN2v811Uint32Array3NewENS_5LocalINS_11ArrayBufferEEEjj
_ZN2v811Uint32Array3NewENS_5LocalINS_17SharedArrayBufferEEEjj
_ZN2v812BackingStore12EmptyDeleterEPvjS1_
_ZN2v812BackingStoreD1Ev
_ZN2v812Float16Array3NewENS_5LocalINS_11ArrayBufferEEEjj
_ZN2v812Float16Array3NewENS_5LocalINS_17SharedArrayBufferEEEjj
_ZN2v812Float32Array3NewENS_5LocalINS_11ArrayBufferEEEjj
_ZN2v812Float32Array3NewENS_5LocalINS_17SharedArrayBufferEEEjj
_ZN2v812Float64Array3NewENS_5LocalINS_11ArrayBufferEEEjj
_ZN2v812Float64Array3NewENS_5LocalINS_17SharedArrayBufferEEEjj
_ZN2v812HeapProfiler16IsTakingSnapshotEv
_ZN2v812HeapProfiler16TakeHeapSnapshotERKNS0_19HeapSnapshotOptionsE
_ZN2v812HeapProfiler23CopyNameForHeapSnapshotEPKc
_ZN2v812HeapProfiler26SetGetDetachednessCallbackEPFNS_13EmbedderGraph4Node12DetachednessEPNS_7IsolateERKNS_5LocalINS_5ValueEEEtPvESB_
_ZN2v812HeapProfiler27GetDetachedJSWrapperObjectsEv
_ZN2v812HeapSnapshot6DeleteEv
_ZN2v812StringObject3NewEPNS_7IsolateENS_5LocalINS_6StringEEE
_ZN2v812api_internal10EternalizeEPNS_7IsolateEPNS_5ValueE
_ZN2v812api_internal12ToLocalEmptyEv
_ZN2v812api_internal13DisposeGlobalEPj
_ZN2v812api_internal17FromJustIsNothingEv
_ZN2v812api_internal18GlobalizeReferenceEPNS_8internal7IsolateEj
_ZN2v812api_internal19MoveGlobalReferenceEPPjS2_
_ZN2v812api_internal22AnnotateStrongRetainerEPjPKc
_ZN2v812api_internal23GetFunctionTemplateDataEPNS_7IsolateENS_5LocalINS_4DataEEE
_ZN2v812api_internal8MakeWeakEPPj
_ZN2v812api_internal8MakeWeakEPjPvPFvRKNS_16WeakCallbackInfoIvEEENS_16WeakCallbackTypeE
_ZN2v812api_internal9ClearWeakEPj
_ZN2v813BigInt64Array3NewENS_5LocalINS_11ArrayBufferEEEjj
_ZN2v813BigInt64Array3NewENS_5LocalINS_17SharedArrayBufferEEEjj
_ZN2v813CFunctionInfoC2ERKNS_9CTypeInfoEjPS2_NS0_19Int64RepresentationE
_ZN2v813RegisterStateC1Ev
_ZN2v813RegisterStateD1Ev
_ZN2v813UnboundScript13GetScriptNameEv
_ZN2v813UnboundScript20BindToCurrentContextEv
_ZN2v813WasmStreaming15OnBytesReceivedEPKhj
_ZN2v813WasmStreaming25SetHasCompiledModuleBytesEv
_ZN2v813WasmStreaming39SetMoreFunctionsCanBeSerializedCallbackENSt4__Cr8functionIFvNS_18CompiledWasmModuleEEEE
_ZN2v813WasmStreaming5AbortENS_10MaybeLocalINS_5ValueEEE
_ZN2v813WasmStreaming6FinishERKNSt4__Cr8functionIFvRNS0_22ModuleCachingInterfaceEEEE
_ZN2v813WasmStreaming6SetUrlEPKcj
_ZN2v813WasmStreaming6UnpackEPNS_7IsolateENS_5LocalINS_5ValueEEE
_ZN2v814BigUint64Array3NewENS_5LocalINS_11ArrayBufferEEEjj
_ZN2v814BigUint64Array3NewENS_5LocalINS_17SharedArrayBufferEEEjj
_ZN2v814HeapStatisticsC1Ev
_ZN2v814MicrotaskQueue3NewEPNS_7IsolateENS_16MicrotasksPolicyE
_ZN2v814ObjectTemplate10SetHandlerERKNS_33NamedPropertyHandlerConfigurationE
_ZN2v814ObjectTemplate10SetHandlerERKNS_35IndexedPropertyHandlerConfigurationE
_ZN2v814ObjectTemplate11NewInstanceENS_5LocalINS_7ContextEEE
_ZN2v814ObjectTemplate11SetCodeLikeEv
_ZN2v814ObjectTemplate17SetImmutableProtoEv
_ZN2v814ObjectTemplate18MarkAsUndetectableEv
_ZN2v814ObjectTemplate21SetInternalFieldCountEi
_ZN2v814ObjectTemplate24SetCallAsFunctionHandlerEPFvRKNS_20FunctionCallbackInfoINS_5ValueEEEENS_5LocalIS2_EE
_ZN2v814ObjectTemplate32SetAccessCheckCallbackAndHandlerEPFbNS_5LocalINS_7ContextEEENS1_INS_6ObjectEEENS1_INS_5ValueEEEERKNS_33NamedPropertyHandlerConfigurationERKNS_35IndexedPropertyHandlerConfigurationES7_
_ZN2v814ObjectTemplate3NewEPNS_7IsolateENS_5LocalINS_16FunctionTemplateEEE
_ZN2v814PrimitiveArray3GetEPNS_7IsolateEi
_ZN2v814PrimitiveArray3NewEPNS_7IsolateEi
_ZN2v814PrimitiveArray3SetEPNS_7IsolateEiNS_5LocalINS_9PrimitiveEEE
_ZN2v814ScriptCompiler10CachedDataC1EPKhiNS1_12BufferPolicyE
_ZN2v814ScriptCompiler10CachedDataD1Ev
_ZN2v814ScriptCompiler13CompileModuleENS_5LocalINS_7ContextEEEPNS0_14StreamedSourceENS1_INS_6StringEEERKNS_12ScriptOriginE
_ZN2v814ScriptCompiler13CompileModuleEPNS_7IsolateEPNS0_6SourceENS0_14CompileOptionsENS0_13NoCacheReasonE
_ZN2v814ScriptCompiler14StartStreamingEPNS_7IsolateEPNS0_14StreamedSourceENS_10ScriptTypeENS0_14CompileOptionsEPFbiPvES7_
_ZN2v814ScriptCompiler14StreamedSourceC1ENSt4__Cr10unique_ptrINS0_20ExternalSourceStreamENS2_14default_deleteIS4_EEEENS1_8EncodingE
_ZN2v814ScriptCompiler14StreamedSourceD1Ev
_ZN2v814ScriptCompiler15CompileFunctionENS_5LocalINS_7ContextEEEPNS0_6SourceEjPNS1_INS_6StringEEEjPNS1_INS_6ObjectEEENS0_14CompileOptionsENS0_13NoCacheReasonE
_ZN2v814ScriptCompiler15CreateCodeCacheENS_5LocalINS_13UnboundScriptEEE
_ZN2v814ScriptCompiler15CreateCodeCacheENS_5LocalINS_19UnboundModuleScriptEEE
_ZN2v814ScriptCompiler19ScriptStreamingTask3RunEv
_ZN2v814ScriptCompiler20CachedDataVersionTagEv
_ZN2v814ScriptCompiler20CompileUnboundScriptEPNS_7IsolateEPNS0_6SourceENS0_14CompileOptionsENS0_13NoCacheReasonE
_ZN2v814ScriptCompiler20ConsumeCodeCacheTask19SourceTextAvailableEPNS_7IsolateENS_5LocalINS_6StringEEERKNS_12ScriptOriginE
_ZN2v814ScriptCompiler20ConsumeCodeCacheTask23MergeWithExistingScriptEv
_ZN2v814ScriptCompiler20ConsumeCodeCacheTask3RunEv
_ZN2v814ScriptCompiler20ConsumeCodeCacheTaskD1Ev
_ZN2v814ScriptCompiler23StartConsumingCodeCacheEPNS_7IsolateENSt4__Cr10unique_ptrINS0_10CachedDataENS3_14default_deleteIS5_EEEE
_ZN2v814ScriptCompiler35StartConsumingCodeCacheOnBackgroundEPNS_7IsolateENSt4__Cr10unique_ptrINS0_10CachedDataENS3_14default_deleteIS5_EEEE
_ZN2v814ScriptCompiler7CompileENS_5LocalINS_7ContextEEEPNS0_14StreamedSourceENS1_INS_6StringEEERKNS_12ScriptOriginE
_ZN2v814ScriptCompiler7CompileENS_5LocalINS_7ContextEEEPNS0_6SourceENS0_14CompileOptionsENS0_13NoCacheReasonE
_ZN2v815ArrayBufferView10ByteLengthEv
_ZN2v815ArrayBufferView10ByteOffsetEv
_ZN2v815ArrayBufferView11GetContentsENS_10MemorySpanIhEE
_ZN2v815ArrayBufferView12CopyContentsEPvj
_ZN2v815ArrayBufferView6BufferEv
_ZN2v815CppHeapExternal7NewImplEPNS_7IsolateEPvNS_17CppHeapPointerTagE
_ZN2v815MicrotasksScope15GetCurrentDepthEPNS_7IsolateE
_ZN2v815MicrotasksScope17PerformCheckpointEPNS_7IsolateE
_ZN2v815MicrotasksScope19IsRunningMicrotasksEPNS_7IsolateE
_ZN2v815MicrotasksScopeC1ENS_5LocalINS_7ContextEEENS0_4TypeE
_ZN2v815MicrotasksScopeC1EPNS_7IsolateEPNS_14MicrotaskQueueENS0_4TypeE
_ZN2v815MicrotasksScopeD1Ev
_ZN2v815SnapshotCreator10AddContextENS_5LocalINS_7ContextEEENS_31SerializeInternalFieldsCallbackENS_28SerializeContextDataCallbackENS_27SerializeAPIWrapperCallbackE
_ZN2v815SnapshotCreator10CreateBlobENS0_20FunctionCodeHandlingE
_ZN2v815SnapshotCreator10GetIsolateEv
_ZN2v815SnapshotCreator17SetDefaultContextENS_5LocalINS_7ContextEEENS_31SerializeInternalFieldsCallbackENS_28SerializeContextDataCallbackENS_27SerializeAPIWrapperCallbackE
_ZN2v815SnapshotCreator7AddDataEj
_ZN2v815SnapshotCreatorC1EPNS_7IsolateERKNS1_12CreateParamsE
_ZN2v815SnapshotCreatorD1Ev
_ZN2v815ValueSerializer10WriteValueENS_5LocalINS_7ContextEEENS1_INS_5ValueEEE
_ZN2v815ValueSerializer11WriteDoubleEd
_ZN2v815ValueSerializer11WriteHeaderEv
_ZN2v815ValueSerializer11WriteUint32Ej
_ZN2v815ValueSerializer11WriteUint64Ey
_ZN2v815ValueSerializer13WriteRawBytesEPKvj
_ZN2v815ValueSerializer19TransferArrayBufferEjNS_5LocalINS_11ArrayBufferEEE
_ZN2v815ValueSerializer7ReleaseEv
_ZN2v815ValueSerializer8Delegate12IsHostObjectEPNS_7IsolateENS_5LocalINS_6ObjectEEE
_ZN2v815ValueSerializer8Delegate15WriteHostObjectEPNS_7IsolateENS_5LocalINS_6ObjectEEE
_ZN2v815ValueSerializer8Delegate16FreeBufferMemoryEPv
_ZN2v815ValueSerializer8Delegate19HasCustomHostObjectEPNS_7IsolateE
_ZN2v815ValueSerializer8Delegate22GetSharedArrayBufferIdEPNS_7IsolateENS_5LocalINS_17SharedArrayBufferEEE
_ZN2v815ValueSerializer8Delegate22ReallocateBufferMemoryEPvjPj
_ZN2v815ValueSerializer8Delegate23GetWasmModuleTransferIdEPNS_7IsolateENS_5LocalINS_16WasmModuleObjectEEE
_ZN2v815ValueSerializer8Delegate24AdoptSharedValueConveyorEPNS_7IsolateEONS_19SharedValueConveyorE
_ZN2v815ValueSerializerC1EPNS_7IsolateEPNS0_8DelegateE
_ZN2v815ValueSerializerD1Ev
_ZN2v816FunctionTemplate11GetFunctionENS_5LocalINS_7ContextEEE
_ZN2v816FunctionTemplate11HasInstanceENS_5LocalINS_5ValueEEE
_ZN2v816FunctionTemplate12NewWithCacheEPNS_7IsolateEPFvRKNS_20FunctionCallbackInfoINS_5ValueEEEENS_5LocalINS_7PrivateEEENSA_IS4_EENSA_INS_9SignatureEEEiNS_14SideEffectTypeE
_ZN2v816FunctionTemplate12SetClassNameENS_5LocalINS_6StringEEE
_ZN2v816FunctionTemplate14SetCallHandlerEPFvRKNS_20FunctionCallbackInfoINS_5ValueEEEENS_5LocalINS_4DataEEENS_14SideEffectTypeERKNS_10MemorySpanIKNS_9CFunctionEEE
_ZN2v816FunctionTemplate15RemovePrototypeEv
_ZN2v816FunctionTemplate16InstanceTemplateEv
_ZN2v816FunctionTemplate16SetInterfaceNameENS_5LocalINS_6StringEEE
_ZN2v816FunctionTemplate17NewRemoteInstanceEv
_ZN2v816FunctionTemplate17PrototypeTemplateEv
_ZN2v816FunctionTemplate17ReadOnlyPrototypeEv
_ZN2v816FunctionTemplate19SetExceptionContextENS_16ExceptionContextE
_ZN2v816FunctionTemplate20SetAcceptAnyReceiverEb
_ZN2v816FunctionTemplate25NewWithCFunctionOverloadsEPNS_7IsolateEPFvRKNS_20FunctionCallbackInfoINS_5ValueEEEENS_5LocalIS4_EENSA_INS_9SignatureEEEiNS_19ConstructorBehaviorENS_14SideEffectTypeERKNS_10MemorySpanIKNS_9CFunctionEEE
_ZN2v816FunctionTemplate3NewEPNS_7IsolateEPFvRKNS_20FunctionCallbackInfoINS_5ValueEEEENS_5LocalIS4_EENSA_INS_9SignatureEEEiNS_19ConstructorBehaviorENS_14SideEffectTypeEPKNS_9CFunctionEttt
_ZN2v816FunctionTemplate7InheritENS_5LocalIS0_EE
_ZN2v816FunctionTemplate9SetLengthEi
_ZN2v816TypecheckWitness6UpdateENS_5LocalINS_5ValueEEE
_ZN2v816TypecheckWitnessC1EPNS_7IsolateE
_ZN2v816WasmModuleObject17GetCompiledModuleEv
_ZN2v816WasmModuleObject18FromCompiledModuleEPNS_7IsolateERKNS_18CompiledWasmModuleE
_ZN2v816WasmModuleObject7CompileEPNS_7IsolateENS_10MemorySpanIKhEE
_ZN2v817RegisterExtensionENSt4__Cr10unique_ptrINS_9ExtensionENS0_14default_deleteIS2_EEEE
_ZN2v817SharedArrayBuffer15GetBackingStoreEv
_ZN2v817SharedArrayBuffer15NewBackingStoreEPvjPFvS1_jS1_ES1_
_ZN2v817SharedArrayBuffer3NewEPNS_7IsolateENSt4__Cr10shared_ptrINS_12BackingStoreEEE
_ZN2v817Uint8ClampedArray3NewENS_5LocalINS_11ArrayBufferEEEjj
_ZN2v817Uint8ClampedArray3NewENS_5LocalINS_17SharedArrayBufferEEEjj
_ZN2v817ValueDeserializer10ReadDoubleEPd
_ZN2v817ValueDeserializer10ReadHeaderENS_5LocalINS_7ContextEEE
_ZN2v817ValueDeserializer10ReadUint32EPj
_ZN2v817ValueDeserializer10ReadUint64EPy
_ZN2v817ValueDeserializer12ReadRawBytesEjPPKv
_ZN2v817ValueDeserializer19TransferArrayBufferEjNS_5LocalINS_11ArrayBufferEEE
_ZN2v817ValueDeserializer25TransferSharedArrayBufferEjNS_5LocalINS_17SharedArrayBufferEEE
_ZN2v817ValueDeserializer27SetSupportsLegacyWireFormatEb
_ZN2v817ValueDeserializer8Delegate14ReadHostObjectEPNS_7IsolateE
_ZN2v817ValueDeserializer8Delegate19GetWasmModuleFromIdEPNS_7IsolateEj
_ZN2v817ValueDeserializer8Delegate22GetSharedValueConveyorEPNS_7IsolateE
_ZN2v817ValueDeserializer8Delegate26GetSharedArrayBufferFromIdEPNS_7IsolateEj
_ZN2v817ValueDeserializer9ReadValueENS_5LocalINS_7ContextEEE
_ZN2v817ValueDeserializerC1EPNS_7IsolateEPKhj
_ZN2v817ValueDeserializerC1EPNS_7IsolateEPKhjPNS0_8DelegateE
_ZN2v817ValueDeserializerD1Ev
_ZN2v818CompiledWasmModule15GetWireBytesRefEv
_ZN2v818CompiledWasmModule9SerializeEv
_ZN2v818DictionaryTemplate11NewInstanceENS_5LocalINS_7ContextEEENS_10MemorySpanINS_10MaybeLocalINS_5ValueEEEEE
_ZN2v818DictionaryTemplate3NewEPNS_7IsolateENS_10MemorySpanIKNSt4__Cr17basic_string_viewIcNS4_11char_traitsIcEEEEEE
_ZN2v818EmbedderStateScopeC1EPNS_7IsolateENS_5LocalINS_7ContextEEENS_16EmbedderStateTagE
_ZN2v818EmbedderStateScopeD1Ev
_ZN2v818HeapCodeStatisticsC1Ev
_ZN2v818PropertyDescriptor14set_enumerableEb
_ZN2v818PropertyDescriptor16set_configurableEb
_ZN2v818PropertyDescriptorC1ENS_5LocalINS_5ValueEEES3_
_ZN2v818PropertyDescriptorC1ENS_5LocalINS_5ValueEEEb
_ZN2v818PropertyDescriptorD1Ev
_ZN2v819CpuProfilingOptionsC1ENS_16CpuProfilingModeEjiNS_10MaybeLocalINS_7ContextEEENS_16CpuProfileSourceE
_ZN2v819HeapSpaceStatisticsC1Ev
_ZN2v819ResourceConstraints17ConfigureDefaultsEyy
_ZN2v819SharedValueConveyorC1EOS0_
_ZN2v819SharedValueConveyorD1Ev
_ZN2v820HeapObjectStatisticsC1Ev
_ZN2v820ToExternalPointerTagEt
_ZN2v822SharedMemoryStatisticsC1Ev
_ZN2v823ExternalMemoryAccounter6UpdateEPNS_7IsolateEx
_ZN2v823ExternalMemoryAccounter8DecreaseEPNS_7IsolateEj
_ZN2v823ExternalMemoryAccounter8IncreaseEPNS_7IsolateEj
_ZN2v823ExternalMemoryAccounterC1EOS0_
_ZN2v823ExternalMemoryAccounterD1Ev
_ZN2v823ExternalMemoryAccounteraSEOS0_
_ZN2v824EscapableHandleScopeBase10EscapeSlotEPj
_ZN2v824EscapableHandleScopeBaseC2EPNS_7IsolateE
_ZN2v829GetTrackEventCategoryRegistryEv
_ZN2v82V810InitializeEi
_ZN2v82V816SetEntropySourceEPFbPhjE
_ZN2v82V818InitializePlatformEPNS_8PlatformE
_ZN2v82V818SetFlagsFromStringEPKc
_ZN2v82V818SetFlagsFromStringEPKcj
_ZN2v82V819SetSnapshotDataBlobEPNS_11StartupDataE
_ZN2v82V825GetSharedMemoryStatisticsEPNS_22SharedMemoryStatisticsE
_ZN2v82V827SetFatalMemoryErrorCallbackEPFvPKcRKNS_10OOMDetailsEE
_ZN2v82V828EnableWebAssemblyTrapHandlerEb
_ZN2v82V87DisposeEv
_ZN2v835TryToCopyAndConvertArrayToCppBufferILj768EiEEbNS_5LocalINS_5ArrayEEEPT0_j
_ZN2v84Date3NewENS_5LocalINS_7ContextEEEd
_ZN2v84JSON5ParseENS_5LocalINS_7ContextEEENS1_INS_6StringEEENSt4__Cr8optionalINS_12ScriptOriginEEE
_ZN2v84JSON9StringifyENS_5LocalINS_7ContextEEENS1_INS_5ValueEEENS1_INS_6StringEEE
_ZN2v84Name15GetIdentityHashEv
_ZN2v85Array3NewENS_5LocalINS_7ContextEEEjNSt4__Cr8functionIFNS_10MaybeLocalINS_5ValueEEEvEEE
_ZN2v85Array3NewEPNS_7IsolateEPNS_5LocalINS_5ValueEEEj
_ZN2v85Array3NewEPNS_7IsolateEi
_ZN2v85Array7IterateENS_5LocalINS_7ContextEEEPFNS0_14CallbackResultEjNS1_INS_5ValueEEEPvES7_
_ZN2v85Proxy3NewENS_5LocalINS_7ContextEEENS1_INS_6ObjectEEES5_
_ZN2v86BigInt12NewFromWordsENS_5LocalINS_7ContextEEEiiPKy
_ZN2v86BigInt3NewEPNS_7IsolateEx
_ZN2v86Locker10InitializeEPNS_7IsolateE
_ZN2v86LockerD1Ev
_ZN2v86Module17InstantiateModuleENS_5LocalINS_7ContextEEEPFNS_10MaybeLocalIS0_EES3_NS1_INS_6StringEEENS1_INS_10FixedArrayEEENS1_IS0_EEEPFNS4_INS_6ObjectEEES3_S7_S9_SA_E
_ZN2v86Module18GetModuleNamespaceEv
_ZN2v86Module21CreateSyntheticModuleEPNS_7IsolateENS_5LocalINS_6StringEEERKNS_10MemorySpanIKS5_EEPFNS_10MaybeLocalINS_5ValueEEENS3_INS_7ContextEEENS3_IS0_EEE
_ZN2v86Module22GetUnboundModuleScriptEv
_ZN2v86Module24SetSyntheticModuleExportEPNS_7IsolateENS_5LocalINS_6StringEEENS3_INS_5ValueEEE
_ZN2v86Module8EvaluateENS_5LocalINS_7ContextEEE
_ZN2v86Number12NewFromInt32EPNS_7IsolateEi
_ZN2v86Number13NewFromUint32EPNS_7IsolateEj
_ZN2v86Number3NewEPNS_7IsolateEd
_ZN2v86Object10GetPrivateENS_5LocalINS_7ContextEEENS1_INS_7PrivateEEE
_ZN2v86Object10HasPrivateENS_5LocalINS_7ContextEEENS1_INS_7PrivateEEE
_ZN2v86Object10SetPrivateENS_5LocalINS_7ContextEEENS1_INS_7PrivateEEENS1_INS_5ValueEEE
_ZN2v86Object10WrapGlobalEPNS_7IsolateERKNS_5LocalIS0_EEPNS0_9WrappableENS_17CppHeapPointerTagE
_ZN2v86Object13DeletePrivateENS_5LocalINS_7ContextEEENS1_INS_7PrivateEEE
_ZN2v86Object14CallAsFunctionENS_5LocalINS_7ContextEEENS1_INS_5ValueEEEiPS5_
_ZN2v86Object14DefinePropertyENS_5LocalINS_7ContextEEENS1_INS_4NameEEERNS_18PropertyDescriptorE
_ZN2v86Object14GetPrototypeV2Ev
_ZN2v86Object14HasOwnPropertyENS_5LocalINS_7ContextEEENS1_INS_4NameEEE
_ZN2v86Object14HasOwnPropertyENS_5LocalINS_7ContextEEEj
_ZN2v86Object14SetPrototypeV2ENS_5LocalINS_7ContextEEENS1_INS_5ValueEEE
_ZN2v86Object15GetIdentityHashEv
_ZN2v86Object16GetPropertyNamesENS_5LocalINS_7ContextEEE
_ZN2v86Object16SetInternalFieldEiNS_5LocalINS_4DataEEE
_ZN2v86Object17CallAsConstructorENS_5LocalINS_7ContextEEEiPNS1_INS_5ValueEEE
_ZN2v86Object17DefineOwnPropertyENS_5LocalINS_7ContextEEENS1_INS_4NameEEENS1_INS_5ValueEEENS_17PropertyAttributeE
_ZN2v86Object17SetIntegrityLevelENS_5LocalINS_7ContextEEENS_14IntegrityLevelE
_ZN2v86Object18CreateDataPropertyENS_5LocalINS_7ContextEEENS1_INS_4NameEEENS1_INS_5ValueEEE
_ZN2v86Object18CreateDataPropertyENS_5LocalINS_7ContextEEEjNS1_INS_5ValueEEE
_ZN2v86Object18GetConstructorNameEv
_ZN2v86Object18GetCreationContextEPNS_7IsolateE
_ZN2v86Object18GetCreationContextEv
_ZN2v86Object19GetOwnPropertyNamesENS_5LocalINS_7ContextEEE
_ZN2v86Object19GetOwnPropertyNamesENS_5LocalINS_7ContextEEENS_14PropertyFilterENS_17KeyConversionModeE
_ZN2v86Object19SetAccessorPropertyENS_5LocalINS_4NameEEENS1_INS_8FunctionEEES5_NS_17PropertyAttributeE
_ZN2v86Object19SetLazyDataPropertyENS_5LocalINS_7ContextEEENS1_INS_4NameEEEPFvS5_RKNS_20PropertyCallbackInfoINS_5ValueEEEENS1_IS7_EENS_17PropertyAttributeENS_14SideEffectTypeESF_
_ZN2v86Object20CheckGlobalWrappableEPNS_7IsolateERKNS_5LocalIS0_EENS_22CppHeapPointerTagRangeE
_ZN2v86Object20GetRealNamedPropertyENS_5LocalINS_7ContextEEENS1_INS_4NameEEE
_ZN2v86Object20HasRealNamedPropertyENS_5LocalINS_7ContextEEENS1_INS_4NameEEE
_ZN2v86Object20SlowGetInternalFieldEi
_ZN2v86Object21GetPropertyAttributesENS_5LocalINS_7ContextEEENS1_INS_5ValueEEE
_ZN2v86Object21SetNativeDataPropertyENS_5LocalINS_7ContextEEENS1_INS_4NameEEEPFvS5_RKNS_20PropertyCallbackInfoINS_5ValueEEEEPFvS5_NS1_IS7_EERKNS6_IvEEESD_NS_17PropertyAttributeENS_14SideEffectTypeESK_
_ZN2v86Object22HasRealIndexedPropertyENS_5LocalINS_7ContextEEEj
_ZN2v86Object24GetOwnPropertyDescriptorENS_5LocalINS_7ContextEEENS1_INS_4NameEEE
_ZN2v86Object25GetCreationContextCheckedEPNS_7IsolateE
_ZN2v86Object25GetCreationContextCheckedEv
_ZN2v86Object32SetAlignedPointerInInternalFieldEiPvt
_ZN2v86Object36GetRealNamedPropertyInPrototypeChainENS_5LocalINS_7ContextEEENS1_INS_4NameEEE
_ZN2v86Object38SlowGetAlignedPointerFromInternalFieldEit
_ZN2v86Object3GetENS_5LocalINS_7ContextEEENS1_INS_5ValueEEE
_ZN2v86Object3GetENS_5LocalINS_7ContextEEEj
_ZN2v86Object3HasENS_5LocalINS_7ContextEEENS1_INS_5ValueEEE
_ZN2v86Object3HasENS_5LocalINS_7ContextEEEj
_ZN2v86Object3NewEPNS_7IsolateE
_ZN2v86Object3NewEPNS_7IsolateENS_5LocalINS_5ValueEEEPNS3_INS_4NameEEEPS5_j
_ZN2v86Object3SetENS_5LocalINS_7ContextEEENS1_INS_5ValueEEES5_
_ZN2v86Object3SetENS_5LocalINS_7ContextEEEjNS1_INS_5ValueEEE
_ZN2v86Object46GetRealNamedPropertyAttributesInPrototypeChainENS_5LocalINS_7ContextEEENS1_INS_4NameEEE
_ZN2v86Object4WrapEPNS_7IsolateEjNS_17CppHeapPointerTagEPv
_ZN2v86Object50GetAlignedPointerFromEmbedderDataInCreationContextEPNS_7IsolateEit
_ZN2v86Object5CloneEPNS_7IsolateE
_ZN2v86Object6DeleteENS_5LocalINS_7ContextEEENS1_INS_5ValueEEE
_ZN2v86RegExp21NewWithBacktrackLimitENS_5LocalINS_7ContextEEENS1_INS_6StringEEENS0_5FlagsEj
_ZN2v86RegExp3NewENS_5LocalINS_7ContextEEENS1_INS_6StringEEENS0_5FlagsE
_ZN2v86RegExp4ExecENS_5LocalINS_7ContextEEENS1_INS_6StringEEE
_ZN2v86Script15GetResourceNameEv
_ZN2v86Script16GetUnboundScriptEv
_ZN2v86Script3RunENS_5LocalINS_7ContextEEE
_ZN2v86Script3RunENS_5LocalINS_7ContextEEENS1_INS_4DataEEE
_ZN2v86Script7CompileENS_5LocalINS_7ContextEEENS1_INS_6StringEEEPNS_12ScriptOriginE
_ZN2v86String11NewFromUtf8EPNS_7IsolateEPKcNS_13NewStringTypeEi
_ZN2v86String12MakeExternalEPNS0_22ExternalStringResourceE
_ZN2v86String12MakeExternalEPNS0_29ExternalOneByteStringResourceE
_ZN2v86String14NewFromOneByteEPNS_7IsolateEPKhNS_13NewStringTypeEi
_ZN2v86String14NewFromTwoByteEPNS_7IsolateEPKtNS_13NewStringTypeEi
_ZN2v86String17InternalizeStringEPNS_7IsolateE
_ZN2v86String18NewExternalOneByteEPNS_7IsolateEPNS0_29ExternalOneByteStringResourceE
_ZN2v86String18NewExternalTwoByteEPNS_7IsolateEPNS0_22ExternalStringResourceE
_ZN2v86String18NewFromUtf8LiteralEPNS_7IsolateEPKcNS_13NewStringTypeEi
_ZN2v86String5ValueC1EPNS_7IsolateENS_5LocalINS_5ValueEEE
_ZN2v86String5ValueD1Ev
_ZN2v86String6ConcatEPNS_7IsolateENS_5LocalIS0_EES4_
_ZN2v86String9Utf8ValueC1EPNS_7IsolateENS_5LocalINS_5ValueEEE
_ZN2v86String9Utf8ValueD1Ev
_ZN2v86Symbol11GetIteratorEPNS_7IsolateE
_ZN2v86Symbol14GetHasInstanceEPNS_7IsolateE
_ZN2v86Symbol14GetToPrimitiveEPNS_7IsolateE
_ZN2v86Symbol14GetToStringTagEPNS_7IsolateE
_ZN2v86Symbol14GetUnscopablesEPNS_7IsolateE
_ZN2v86Symbol16GetAsyncIteratorEPNS_7IsolateE
_ZN2v86Symbol21GetIsConcatSpreadableEPNS_7IsolateE
_ZN2v87Context10DeepFreezeEPNS0_18DeepFreezeDelegateE
_ZN2v87Context12DetachGlobalEv
_ZN2v87Context16NewRemoteContextEPNS_7IsolateENS_5LocalINS_14ObjectTemplateEEENS_10MaybeLocalINS_5ValueEEE
_ZN2v87Context16SetSecurityTokenENS_5LocalINS_5ValueEEE
_ZN2v87Context17GetMicrotaskQueueEv
_ZN2v87Context17SetMicrotaskQueueEPNS_14MicrotaskQueueE
_ZN2v87Context20BackupIncumbentScopeC1ENS_5LocalIS0_EE
_ZN2v87Context20BackupIncumbentScopeD1Ev
_ZN2v87Context23SetAbortScriptExecutionEPFvPNS_7IsolateENS_5LocalIS0_EEE
_ZN2v87Context23UseDefaultSecurityTokenEv
_ZN2v87Context24HasTemplateLiteralObjectENS_5LocalINS_5ValueEEE
_ZN2v87Context29GetNumberOfEmbedderDataFieldsEv
_ZN2v87Context30AllowCodeGenerationFromStringsEb
_ZN2v87Context31SetAlignedPointerInEmbedderDataEiPvt
_ZN2v87Context36SetErrorMessageForWasmCodeGenerationENS_5LocalINS_6StringEEE
_ZN2v87Context3NewEPNS_7IsolateEPNS_22ExtensionConfigurationENS_10MaybeLocalINS_14ObjectTemplateEEENS5_INS_5ValueEEENS_33DeserializeInternalFieldsCallbackEPNS_14MicrotaskQueueENS_30DeserializeContextDataCallbackENS_29DeserializeAPIWrapperCallbackE
_ZN2v87Context43SetErrorMessageForCodeGenerationFromStringsENS_5LocalINS_6StringEEE
_ZN2v87Context4ExitEv
_ZN2v87Context5EnterEv
_ZN2v87Context6GlobalEv
_ZN2v87CppHeap13GetHeapHandleEv
_ZN2v87CppHeap17CollectStatisticsEN5cppgc14HeapStatistics11DetailLevelE
_ZN2v87CppHeap19GetAllocationHandleEv
_ZN2v87CppHeap24CollectGarbageForTestingEN5cppgc18EmbedderStackStateE
_ZN2v87CppHeap36CollectCustomSpaceStatisticsAtLastGCENSt4__Cr6vectorIN5cppgc16CustomSpaceIndexENS1_9allocatorIS4_EEEENS1_10unique_ptrINS_29CustomSpaceStatisticsReceiverENS1_14default_deleteIS9_EEEE
_ZN2v87CppHeap6CreateEPNS_8PlatformERKNS_19CppHeapCreateParamsE
_ZN2v87Integer15NewFromUnsignedEPNS_7IsolateEj
_ZN2v87Integer3NewEPNS_7IsolateEi
_ZN2v87Isolate10GetCurrentEv
_ZN2v87Isolate10InitializeEPS0_RKNS0_12CreateParamsE
_ZN2v87Isolate11SetPriorityENS0_8PriorityE
_ZN2v87Isolate12CreateParamsC1Ev
_ZN2v87Isolate12CreateParamsD1Ev
_ZN2v87Isolate12SetIsLoadingEb
_ZN2v87Isolate13CopyCodePagesEjPNS_11MemoryRangeE
_ZN2v87Isolate13MeasureMemoryENSt4__Cr10unique_ptrINS_21MeasureMemoryDelegateENS1_14default_deleteIS3_EEEENS_22MeasureMemoryExecutionE
_ZN2v87Isolate13SetStackLimitEj
_ZN2v87Isolate13TryGetCurrentEv
_ZN2v87Isolate14SetPromiseHookEPFvNS_15PromiseHookTypeENS_5LocalINS_7PromiseEEENS2_INS_5ValueEEEE
_ZN2v87Isolate14ThrowExceptionENS_5LocalINS_5ValueEEE
_ZN2v87Isolate15GetHeapProfilerEv
_ZN2v87Isolate15GetJSEntryStubsEv
_ZN2v87Isolate16RequestInterruptEPFvPS0_PvES2_
_ZN2v87Isolate17DumpAndResetStatsEv
_ZN2v87Isolate17GetCurrentContextEv
_ZN2v87Isolate17GetHeapStatisticsEPNS_14HeapStatisticsE
_ZN2v87Isolate18GetStackTraceLimitEv
_ZN2v87Isolate18NumberOfHeapSpacesEv
_ZN2v87Isolate18SetMemorySaverModeEb
_ZN2v87Isolate18SetMetricsRecorderERKNSt4__Cr10shared_ptrINS_7metrics8RecorderEEE
_ZN2v87Isolate18TerminateExecutionEv
_ZN2v87Isolate19GetIncumbentContextEv
_ZN2v87Isolate19HasPendingExceptionEv
_ZN2v87Isolate19RetryCustomAllocateENSt4__Cr8functionIFbvEEE
_ZN2v87Isolate19SetAllowAtomicsWaitEb
_ZN2v87Isolate19SetBatterySaverModeEb
_ZN2v87Isolate19SetMicrotasksPolicyENS_16MicrotasksPolicyE
_ZN2v87Isolate20GetEmbeddedCodeRangeEPPKvPj
_ZN2v87Isolate20SetFatalErrorHandlerEPFvPKcS2_E
_ZN2v87Isolate21AddGCEpilogueCallbackEPFvPS0_NS_6GCTypeENS_15GCCallbackFlagsEES2_
_ZN2v87Isolate21AddGCPrologueCallbackEPFvPS0_NS_6GCTypeENS_15GCCallbackFlagsEES2_
_ZN2v87Isolate21ClearCachesForTestingEv
_ZN2v87Isolate21LowMemoryNotificationEv
_ZN2v87Isolate21SetUseCounterCallbackEPFvPS0_NS0_17UseCounterFeatureEE
_ZN2v87Isolate21SetWasmModuleCallbackEPFbRKNS_20FunctionCallbackInfoINS_5ValueEEEE
_ZN2v87Isolate22GetHeapSpaceStatisticsEPNS_19HeapSpaceStatisticsEj
_ZN2v87Isolate22IsExecutionTerminatingEv
_ZN2v87Isolate22RemoveMessageListenersEPFvNS_5LocalINS_7MessageEEENS1_INS_5ValueEEEE
_ZN2v87Isolate22SetAddCrashKeyCallbackEPFvNS_10CrashKeyIdERKNSt4__Cr12basic_stringIcNS2_11char_traitsIcEENS2_9allocatorIcEEEEE
_ZN2v87Isolate23SetEmbedderRootsHandlerEPNS_20EmbedderRootsHandlerE
_ZN2v87Isolate23SetWasmInstanceCallbackEPFbRKNS_20FunctionCallbackInfoINS_5ValueEEEE
_ZN2v87Isolate24CancelTerminateExecutionEv
_ZN2v87Isolate24RemoveGCEpilogueCallbackEPFvPS0_NS_6GCTypeENS_15GCCallbackFlagsEE
_ZN2v87Isolate24RemoveGCPrologueCallbackEPFvPS0_NS_6GCTypeENS_15GCCallbackFlagsEE
_ZN2v87Isolate24SetPromiseRejectCallbackEPFvNS_20PromiseRejectMessageEE
_ZN2v87Isolate24SetWasmStreamingCallbackEPFvRKNS_20FunctionCallbackInfoINS_5ValueEEEE
_ZN2v87Isolate26InstallConditionalFeaturesENS_5LocalINS_7ContextEEE
_ZN2v87Isolate26MemoryPressureNotificationENS_19MemoryPressureLevelE
_ZN2v87Isolate26SetCrashKeyStringCallbacksENSt4__Cr8functionIFPvPKcNS_12CrashKeySizeEEEENS2_IFvS3_NS1_17basic_string_viewIcNS1_11char_traitsIcEEEEEEE
_ZN2v87Isolate27ContextDisposedNotificationEb
_ZN2v87Isolate28AddBeforeCallEnteredCallbackEPFvPS0_E
_ZN2v87Isolate28GetEnteredOrMicrotaskContextEv
_ZN2v87Isolate29AllowJavascriptExecutionScopeC1EPS0_
_ZN2v87Isolate29AllowJavascriptExecutionScopeD1Ev
_ZN2v87Isolate29IncreaseHeapLimitForDebuggingEv
_ZN2v87Isolate30NumberOfTrackedHeapObjectTypesEv
_ZN2v87Isolate31GetHeapObjectStatisticsAtLastGCEPNS_20HeapObjectStatisticsEj
_ZN2v87Isolate31RemoveBeforeCallEnteredCallbackEPFvPS0_E
_ZN2v87Isolate31SetExceptionPropagationCallbackEPFvNS_27ExceptionPropagationMessageEE
_ZN2v87Isolate32AddMessageListenerWithErrorLevelEPFvNS_5LocalINS_7MessageEEENS1_INS_5ValueEEEEiS5_
_ZN2v87Isolate32DisallowJavascriptExecutionScopeC1EPS0_NS1_9OnFailureE
_ZN2v87Isolate32DisallowJavascriptExecutionScopeD1Ev
_ZN2v87Isolate32GetHeapCodeAndMetadataStatisticsEPNS_18HeapCodeStatisticsE
_ZN2v87Isolate32IsHeapLimitIncreasedForDebuggingEv
_ZN2v87Isolate34RequestGarbageCollectionForTestingENS0_21GarbageCollectionTypeE
_ZN2v87Isolate34SetAllowWasmCodeGenerationCallbackEPFbNS_5LocalINS_7ContextEEENS1_INS_6StringEEEE
_ZN2v87Isolate34SetWasmAsyncResolvePromiseCallbackEPFvPS0_NS_5LocalINS_7ContextEEENS2_INS_7Promise8ResolverEEENS2_INS_5ValueEEENS_16WasmAsyncSuccessEE
_ZN2v87Isolate36SetFailedAccessCheckCallbackFunctionEPFvNS_5LocalINS_6ObjectEEENS_10AccessTypeENS1_INS_5ValueEEEE
_ZN2v87Isolate36SetIsJSApiWrapperNativeErrorCallbackEPFbPS0_NS_5LocalINS_6ObjectEEEE
_ZN2v87Isolate37AdjustAmountOfExternalAllocatedMemoryEx
_ZN2v87Isolate37LocaleConfigurationChangeNotificationEv
_ZN2v87Isolate38GetContinuationPreservedEmbedderDataV2Ev
_ZN2v87Isolate38SetContinuationPreservedEmbedderDataV2ENS_5LocalINS_4DataEEE
_ZN2v87Isolate38SetHostImportModuleDynamicallyCallbackEPFNS_10MaybeLocalINS_7PromiseEEENS_5LocalINS_7ContextEEENS4_INS_4DataEEENS4_INS_5ValueEEENS4_INS_6StringEEENS4_INS_10FixedArrayEEEE
_ZN2v87Isolate38ValidateAndCanonicalizeUnicodeLocaleIdENSt4__Cr17basic_string_viewIcNS1_11char_traitsIcEEEE
_ZN2v87Isolate39DateTimeConfigurationChangeNotificationENS0_17TimeZoneDetectionE
_ZN2v87Isolate39SetHostCreateShadowRealmContextCallbackEPFNS_10MaybeLocalINS_7ContextEEENS_5LocalIS2_EEE
_ZN2v87Isolate39SetWasmCustomDescriptorsEnabledCallbackEPFbNS_5LocalINS_7ContextEEEE
_ZN2v87Isolate3NewERKNS0_12CreateParamsE
_ZN2v87Isolate41SetCaptureStackTraceForUncaughtExceptionsEbiNS_10StackTrace17StackTraceOptionsE
_ZN2v87Isolate41SetHostInitializeImportMetaObjectCallbackEPFvNS_5LocalINS_7ContextEEENS1_INS_6ModuleEEENS1_INS_6ObjectEEEE
_ZN2v87Isolate42SetModifyCodeGenerationFromStringsCallbackEPFNS_37ModifyCodeGenerationFromStringsResultENS_5LocalINS_7ContextEEENS2_INS_5ValueEEEbE
_ZN2v87Isolate46SetSharedArrayBufferConstructorEnabledCallbackEPFbNS_5LocalINS_7ContextEEEE
_ZN2v87Isolate47SetHostImportModuleWithPhaseDynamicallyCallbackEPFNS_10MaybeLocalINS_7PromiseEEENS_5LocalINS_7ContextEEENS4_INS_4DataEEENS4_INS_5ValueEEENS4_INS_6StringEEENS_17ModuleImportPhaseENS4_INS_10FixedArrayEEEE
_ZN2v87Isolate4ExitEv
_ZN2v87Isolate5EnterEv
_ZN2v87Isolate6IsDeadEv
_ZN2v87Isolate7DisposeEv
_ZN2v87Isolate8AllocateEv
_ZN2v87Isolate9InContextEv
_ZN2v87Message22PrintCurrentStackTraceEPNS_7IsolateERNSt4__Cr13basic_ostreamIcNS3_11char_traitsIcEEEEPFbS2_NS_5LocalINS_6StringEEEE
_ZN2v87Private3NewEPNS_7IsolateENS_5LocalINS_6StringEEE
_ZN2v87Private6ForApiEPNS_7IsolateENS_5LocalINS_6StringEEE
_ZN2v87Promise12MarkAsSilentEv
_ZN2v87Promise13MarkAsHandledEv
_ZN2v87Promise4ThenENS_5LocalINS_7ContextEEENS1_INS_8FunctionEEE
_ZN2v87Promise4ThenENS_5LocalINS_7ContextEEENS1_INS_8FunctionEEES5_
_ZN2v87Promise5CatchENS_5LocalINS_7ContextEEENS1_INS_8FunctionEEE
_ZN2v87Promise5StateEv
_ZN2v87Promise6ResultEv
_ZN2v87Promise8Resolver10GetPromiseEv
_ZN2v87Promise8Resolver3NewENS_5LocalINS_7ContextEEE
_ZN2v87Promise8Resolver6RejectENS_5LocalINS_7ContextEEENS2_INS_5ValueEEE
_ZN2v87Promise8Resolver7ResolveENS_5LocalINS_7ContextEEENS2_INS_5ValueEEE
_ZN2v87metrics13LongTaskStats3GetEPNS_7IsolateE
_ZN2v87metrics8Recorder10GetContextEPNS_7IsolateENS1_9ContextIdE
_ZN2v88DataView3NewENS_5LocalINS_11ArrayBufferEEEjj
_ZN2v88External3NewEPNS_7IsolateEPvt
_ZN2v88Function21FunctionProtoToStringENS_5LocalINS_7ContextEEE
_ZN2v88Function3NewENS_5LocalINS_7ContextEEEPFvRKNS_20FunctionCallbackInfoINS_5ValueEEEENS1_INS_4DataEEEiNS_19ConstructorBehaviorENS_14SideEffectTypeE
_ZN2v88Function4CallENS_5LocalINS_7ContextEEENS1_INS_5ValueEEEiPS5_
_ZN2v88Function4CallEPNS_7IsolateENS_5LocalINS_7ContextEEENS3_INS_5ValueEEEiPS7_
_ZN2v88Function7SetNameENS_5LocalINS_6StringEEE
_ZN2v88Template19SetAccessorPropertyENS_5LocalINS_4NameEEENS1_INS_16FunctionTemplateEEES5_NS_17PropertyAttributeE
_ZN2v88Template19SetLazyDataPropertyENS_5LocalINS_4NameEEEPFvS3_RKNS_20PropertyCallbackInfoINS_5ValueEEEENS1_IS5_EENS_17PropertyAttributeENS_14SideEffectTypeESD_
_ZN2v88Template21SetNativeDataPropertyENS_5LocalINS_4NameEEEPFvS3_RKNS_20PropertyCallbackInfoINS_5ValueEEEEPFvS3_NS1_IS5_EERKNS4_IvEEESB_NS_17PropertyAttributeENS_14SideEffectTypeESI_
_ZN2v88Template24SetIntrinsicDataPropertyENS_5LocalINS_4NameEEENS_9IntrinsicENS_17PropertyAttributeE
_ZN2v88Template3SetENS_5LocalINS_4NameEEENS1_INS_4DataEEENS_17PropertyAttributeE
_ZN2v88TryCatch10SetVerboseEb
_ZN2v88TryCatch10StackTraceENS_5LocalINS_7ContextEEENS1_INS_5ValueEEE
_ZN2v88TryCatch17SetCaptureMessageEb
_ZN2v88TryCatch5ResetEv
_ZN2v88TryCatch7ReThrowEv
_ZN2v88TryCatchC1EPNS_7IsolateE
_ZN2v88TryCatchD1Ev
_ZN2v88Unlocker10InitializeEPNS_7IsolateE
_ZN2v88UnlockerD1Ev
_ZN2v88Unwinder17TryUnwindV8FramesERKNS_12JSEntryStubsEjPKNS_11MemoryRangeEPNS_13RegisterStateEPKv
_ZN2v88internal18ShouldThrowOnErrorEPNS0_7IsolateE
_ZN2v88internal19CopyTracedReferenceEPKPKjPPj
_ZN2v88internal19MoveTracedReferenceEPPjS2_
_ZN2v88internal22DisposeTracedReferenceEPj
_ZN2v88internal24GlobalizeTracedReferenceEPNS0_7IsolateEjPjNS0_24TracedReferenceStoreModeENS0_23TracedReferenceHandlingE
_ZN2v88internal9Internals17GetCurrentIsolateEv
_ZN2v89CFunctionC1EPKvPKNS_13CFunctionInfoE
_ZN2v89Exception10RangeErrorENS_5LocalINS_6StringEEENS1_INS_5ValueEEE
_ZN2v89Exception11SyntaxErrorENS_5LocalINS_6StringEEENS1_INS_5ValueEEE
_ZN2v89Exception13CreateMessageEPNS_7IsolateENS_5LocalINS_5ValueEEE
_ZN2v89Exception16WasmCompileErrorENS_5LocalINS_6StringEEENS1_INS_5ValueEEE
_ZN2v89Exception17CaptureStackTraceENS_5LocalINS_7ContextEEENS1_INS_6ObjectEEE
_ZN2v89Exception5ErrorENS_5LocalINS_6StringEEENS1_INS_5ValueEEE
_ZN2v89Exception9TypeErrorENS_5LocalINS_6StringEEENS1_INS_5ValueEEE
_ZN2v89ExtensionC1EPKcS2_iPS2_i
_ZN2v89ExtensionC2EPKcS2_iPS2_i
_ZN2v89Int8Array3NewENS_5LocalINS_11ArrayBufferEEEjj
_ZN2v89Int8Array3NewENS_5LocalINS_17SharedArrayBufferEEEjj
_ZN2v89Signature3NewEPNS_7IsolateENS_5LocalINS_16FunctionTemplateEEE
_ZN4node10AsyncHooks17pop_async_contextEd
_ZN4node10AsyncHooks20clear_async_id_stackEv
_ZN4node10NewContextEPN2v87IsolateENS0_5LocalINS0_14ObjectTemplateEEE
_ZN4node10ResetStdioEv
_ZN4node11per_process11cli_optionsE
_ZN4node12MakeCallbackEPN2v87IsolateENS0_5LocalINS0_6ObjectEEENS3_INS0_8FunctionEEEiPNS3_INS0_5ValueEEENS_13async_contextE
_ZN4node12MakeCallbackEPN2v87IsolateENS0_5LocalINS0_6ObjectEEEPKciPNS3_INS0_5ValueEEENS_13async_contextE
_ZN4node12wasm_web_api25StartStreamingCompilationERKN2v820FunctionCallbackInfoINS1_5ValueEEE
_ZN4node13CallbackScopeC1EPN2v87IsolateENS1_5LocalINS1_6ObjectEEENS_13async_contextE
_ZN4node13CallbackScopeC1EPNS_11EnvironmentEN2v85LocalINS3_6ObjectEEENS_13async_contextE
_ZN4node13CallbackScopeD1Ev
_ZN4node13GetNodeReportEPN2v87IsolateEPKcS4_NS0_5LocalINS0_5ValueEEERNSt4__Cr13basic_ostreamIcNS8_11char_traitsIcEEEE
_ZN4node13SpinEventLoopEPNS_11EnvironmentE
_ZN4node15FreeEnvironmentEPNS_11EnvironmentE
_ZN4node15FreeIsolateDataEPNS_11IsolateDataE
_ZN4node15LoadEnvironmentEPNS_11EnvironmentENSt4__Cr8functionIFN2v810MaybeLocalINS4_5ValueEEERKNS_26StartExecutionCallbackInfoEEEENS3_IFvS1_NS4_5LocalIS6_EESE_EEE
_ZN4node17CreateEnvironmentEPNS_11IsolateDataEN2v85LocalINS2_7ContextEEERKNSt4__Cr6vectorINS6_12basic_stringIcNS6_11char_traitsIcEENS6_9allocatorIcEEEENSB_ISD_EEEESH_NS_16EnvironmentFlags5FlagsENS_8ThreadIdENS6_10unique_ptrINS_21InspectorParentHandleENS6_14default_deleteISM_EEEE
_ZN4node17CreateIsolateDataEPN2v87IsolateEP9uv_loop_sPNS_20MultiIsolatePlatformEPNS_20ArrayBufferAllocatorEPKNS_20EmbedderSnapshotDataE
_ZN4node17InitializeContextEN2v85LocalINS0_7ContextEEE
_ZN4node18CheckedUvLoopCloseEP9uv_loop_s
_ZN4node18ContextEmbedderTag18kNodeContextTagPtrE
_ZN4node19SetIsolateUpForNodeEPN2v87IsolateE
_ZN4node19SetIsolateUpForNodeEPN2v87IsolateERKNS_15IsolateSettingsE
_ZN4node20MultiIsolatePlatform6CreateEiPN2v817TracingControllerEPNS1_13PageAllocatorE
_ZN4node21SetProcessExitHandlerEPNS_11EnvironmentEONSt4__Cr8functionIFvS1_iEEE
_ZN4node22NodeRuntimeEnvironment11GetInstanceEv
_ZN4node22NodeRuntimeEnvironment11SetDelegateENSt4__Cr10unique_ptrINS_15RuntimeDelegateENS1_14default_deleteIS3_EEEE
_ZN4node24InitializeOncePerProcessERKNSt4__Cr6vectorINS0_12basic_stringIcNS0_11char_traitsIcEENS0_9allocatorIcEEEENS5_IS7_EEEENS_26ProcessInitializationFlags5FlagsE
_ZN4node25DefaultProcessExitHandlerEPNS_11EnvironmentEi
_ZN4node25ProcessEmitWarningGenericEPNS_11EnvironmentENSt4__Cr17basic_string_viewIcNS2_11char_traitsIcEEEES6_S6_
_ZN4node31AllowWasmCodeGenerationCallbackEN2v85LocalINS0_7ContextEEENS1_INS0_6StringEEE
_ZN4node4StopEPNS_11EnvironmentENS_9StopFlags5FlagsE
_ZN4node6AssertERKNS_13AssertionInfoE
_ZN4node6Buffer11HasInstanceEN2v85LocalINS1_5ValueEEE
_ZN4node6Buffer3NewEPN2v87IsolateENS1_5LocalINS1_11ArrayBufferEEEjj
_ZN4node6Buffer3NewEPN2v87IsolateEj
_ZN4node6Buffer4CopyEPN2v87IsolateEPKcj
_ZN4node6Buffer4DataEN2v85LocalINS1_5ValueEEE
_ZN4node6Buffer6LengthEN2v85LocalINS1_5ValueEEE
_ZN4node6errors24TriggerUncaughtExceptionEPN2v87IsolateERKNS1_8TryCatchE
_ZN4node7binding17get_linked_moduleEPKc
_ZN4node7tracing16TraceEventHelper8GetAgentEv
_ZN4node7tracing16TraceEventHelper8SetAgentEPNS0_5AgentE
_ZN4node7tracing5AgentC1Ev
_ZN4node8builtins13BuiltinLoader16LookupAndCompileEN2v85LocalINS2_7ContextEEEPKcPNS2_11LocalVectorINS2_6StringEEEPNS_5RealmE
_ZN4node8builtins13BuiltinLoaderC1Ev
_ZN4node9AsyncWrap9EmitAfterEPNS_11EnvironmentEd
_ZN5cppgc17InitializeProcessEPN2v813PageAllocatorEj
_ZN5cppgc21ProcessHeapStatistics22total_allocated_space_E
_ZN5cppgc21ProcessHeapStatistics28total_allocated_object_size_E
_ZN5cppgc6subtle24NoGarbageCollectionScope5EnterERNS_10HeapHandleE
_ZN5cppgc6subtle24NoGarbageCollectionScope5LeaveERNS_10HeapHandleE
_ZN5cppgc6subtle24NoGarbageCollectionScopeC1ERNS_10HeapHandleE
_ZN5cppgc6subtle24NoGarbageCollectionScopeD1Ev
_ZN5cppgc6subtle30DisallowGarbageCollectionScope26IsGarbageCollectionAllowedERNS_10HeapHandleE
_ZN5cppgc6subtle30DisallowGarbageCollectionScopeC1ERNS_10HeapHandleE
_ZN5cppgc6subtle30DisallowGarbageCollectionScopeD1Ev
_ZN5cppgc6subtle9HeapState15IsInAtomicPauseERKNS_10HeapHandleE
_ZN5cppgc6subtle9HeapState9IsMarkingERKNS_10HeapHandleE
_ZN5cppgc8internal12WriteBarrier22write_barrier_enabled_E
_ZN5cppgc8internal12WriteBarrier24CombinedWriteBarrierSlowILNS0_20WriteBarrierSlotTypeE1EEEvPKv
_ZN5cppgc8internal12WriteBarrier31DijkstraMarkingBarrierRangeSlowERNS_10HeapHandleEPKvjjPFvPNS_7VisitorES5_E
_ZN5cppgc8internal12WriteBarrier41SteeleMarkingBarrierSlowWithSentinelCheckEPKv
_ZN5cppgc8internal12WriteBarrier43DijkstraMarkingBarrierSlowWithSentinelCheckEPKv
_ZN5cppgc8internal16PersistentRegion16IsCreationThreadEv
_ZN5cppgc8internal19BaseObjectSizeTrait32GetObjectSizeForGarbageCollectedEPKv
_ZN5cppgc8internal20PersistentRegionBase29RefillFreeListAndAllocateNodeEPvPFvRNS0_11RootVisitorEPKvE
_ZN5cppgc8internal20PersistentRegionLock12AssertLockedEv
_ZN5cppgc8internal20PersistentRegionLockC1Ev
_ZN5cppgc8internal20PersistentRegionLockD1Ev
_ZN5cppgc8internal20WeakPersistentPolicy19GetPersistentRegionEPKv
_ZN5cppgc8internal22EnsureGCInfoIndexTrait17EnsureGCInfoIndexERNSt4__Cr6atomicItEEPFvPNS_7VisitorEPKvE
_ZN5cppgc8internal22EnsureGCInfoIndexTrait17EnsureGCInfoIndexERNSt4__Cr6atomicItEEPFvPNS_7VisitorEPKvEPFvPvE
_ZN5cppgc8internal22EnsureGCInfoIndexTrait17EnsureGCInfoIndexERNSt4__Cr6atomicItEEPFvPNS_7VisitorEPKvEPFvPvEPFNS0_14HeapObjectNameES9_NS0_30HeapObjectNameForUnnamedObjectEE
_ZN5cppgc8internal22ExplicitManagementImpl22FreeUnreferencedObjectERNS_10HeapHandleEPv
_ZN5cppgc8internal22ExplicitManagementImpl6ResizeEPvj
_ZN5cppgc8internal22StrongPersistentPolicy19GetPersistentRegionEPKv
_ZN5cppgc8internal24PrefinalizerRegistrationC1EPvPFbRKNS_14LivenessBrokerES2_E
_ZN5cppgc8internal30TraceTraitFromInnerAddressImpl18GetTraceDescriptorEPKv
_ZN5cppgc8internal31WeakCrossThreadPersistentPolicy19GetPersistentRegionEPKv
_ZN5cppgc8internal33MakeGarbageCollectedTraitInternal8AllocateERNS_16AllocationHandleEjSt11align_val_tt
_ZN5cppgc8internal33MakeGarbageCollectedTraitInternal8AllocateERNS_16AllocationHandleEjSt11align_val_ttNS_16CustomSpaceIndexE
_ZN5cppgc8internal33MakeGarbageCollectedTraitInternal8AllocateERNS_16AllocationHandleEjt
_ZN5cppgc8internal33MakeGarbageCollectedTraitInternal8AllocateERNS_16AllocationHandleEjtNS_16CustomSpaceIndexE
_ZN5cppgc8internal33StrongCrossThreadPersistentPolicy19GetPersistentRegionEPKv
_ZN5cppgc8internal9FatalImplEPKcN2v814SourceLocationE
_ZNK12v8_inspector12V8DebuggerId8toStringEv
_ZNK12v8_inspector14V8StackTraceId9IsInvalidEv
_ZNK2v810CpuProfile14GetSampleStateEi
_ZNK2v810CpuProfile15GetSamplesCountEv
_ZNK2v810CpuProfile18GetSampleTimestampEi
_ZNK2v810CpuProfile22GetSampleEmbedderStateEi
_ZNK2v810CpuProfile9GetSampleEi
_ZNK2v810FixedArray3GetEi
_ZNK2v810FixedArray6LengthEv
_ZNK2v810StackFrame11GetLocationEv
_ZNK2v810StackFrame11GetScriptIdEv
_ZNK2v810StackFrame13GetScriptNameEv
_ZNK2v810StackFrame15GetFunctionNameEv
_ZNK2v810StackFrame17GetSourcePositionEv
_ZNK2v810StackFrame24GetScriptNameOrSourceURLEv
_ZNK2v810StackTrace13GetFrameCountEv
_ZNK2v810StackTrace8GetFrameEPNS_7IsolateEj
_ZNK2v811ArrayBuffer10ByteLengthEv
_ZNK2v811ArrayBuffer11WasDetachedEv
_ZNK2v811ArrayBuffer12IsDetachableEv
_ZNK2v811ArrayBuffer27IsResizableByUserJavaScriptEv
_ZNK2v811ArrayBuffer4DataEv
_ZNK2v812BackingStore10ByteLengthEv
_ZNK2v812BackingStore13MaxByteLengthEv
_ZNK2v812BackingStore27IsResizableByUserJavaScriptEv
_ZNK2v812BackingStore4DataEv
_ZNK2v812BackingStore8IsSharedEv
_ZNK2v812HeapSnapshot9SerializeEPNS_12OutputStreamENS0_19SerializationFormatE
_ZNK2v812ScriptOrigin24VerifyHostDefinedOptionsEv
_ZNK2v813ModuleRequest12GetSpecifierEv
_ZNK2v813ModuleRequest15GetSourceOffsetEv
_ZNK2v813ModuleRequest19GetImportAttributesEv
_ZNK2v813ModuleRequest8GetPhaseEv
_ZNK2v813UnboundScript5GetIdEv
_ZNK2v814CpuProfileNode11GetScriptIdEv
_ZNK2v814CpuProfileNode13GetLineNumberEv
_ZNK2v814CpuProfileNode13GetSourceTypeEv
_ZNK2v814CpuProfileNode15GetColumnNumberEv
_ZNK2v814CpuProfileNode15GetFunctionNameEv
_ZNK2v814CpuProfileNode18GetFunctionNameStrEv
_ZNK2v814CpuProfileNode21GetScriptResourceNameEv
_ZNK2v814CpuProfileNode24GetScriptResourceNameStrEv
_ZNK2v814CpuProfileNode25IsScriptSharedCrossOriginEv
_ZNK2v814CpuProfileNode9GetNodeIdEv
_ZNK2v814CpuProfileNode9GetParentEv
_ZNK2v814ObjectTemplate18InternalFieldCountEv
_ZNK2v814PrimitiveArray6LengthEv
_ZNK2v814ScriptCompiler20ConsumeCodeCacheTask29ShouldMergeWithExistingScriptEv
_ZNK2v815ArrayBufferView9HasBufferEv
_ZNK2v815CppHeapExternal9ValueImplEPNS_7IsolateENS_22CppHeapPointerTagRangeE
_ZNK2v817SharedArrayBuffer10ByteLengthEv
_ZNK2v817SharedArrayBuffer4DataEv
_ZNK2v817ValueDeserializer20GetWireFormatVersionEv
_ZNK2v818PropertyDescriptor10enumerableEv
_ZNK2v818PropertyDescriptor12configurableEv
_ZNK2v818PropertyDescriptor3getEv
_ZNK2v818PropertyDescriptor3setEv
_ZNK2v818PropertyDescriptor5valueEv
_ZNK2v818PropertyDescriptor7has_getEv
_ZNK2v818PropertyDescriptor7has_setEv
_ZNK2v818PropertyDescriptor8writableEv
_ZNK2v818PropertyDescriptor9has_valueEv
_ZNK2v821CompileHintsCollector15GetCompileHintsEPNS_7IsolateE
_ZNK2v83Map4SizeEv
_ZNK2v83Map7AsArrayEv
_ZNK2v84Data12IsFixedArrayEv
_ZNK2v84Data18IsFunctionTemplateEv
_ZNK2v84Data7IsValueEv
_ZNK2v84Date7ValueOfEv
_ZNK2v85Array6LengthEv
_ZNK2v85Int325ValueEv
_ZNK2v85Value10FullIsTrueEv
_ZNK2v85Value10Int32ValueENS_5LocalINS_7ContextEEE
_ZNK2v85Value10IsDataViewEv
_ZNK2v85Value10IsExternalEv
_ZNK2v85Value10IsFunctionEv
_ZNK2v85Value11IsInt8ArrayEv
_ZNK2v85Value11NumberValueENS_5LocalINS_7ContextEEE
_ZNK2v85Value11Uint32ValueENS_5LocalINS_7ContextEEE
_ZNK2v85Value12BooleanValueEPNS_7IsolateE
_ZNK2v85Value12IntegerValueENS_5LocalINS_7ContextEEE
_ZNK2v85Value12IsInt16ArrayEv
_ZNK2v85Value12IsInt32ArrayEv
_ZNK2v85Value12IsTypedArrayEv
_ZNK2v85Value12IsUint8ArrayEv
_ZNK2v85Value12ToArrayIndexENS_5LocalINS_7ContextEEE
_ZNK2v85Value13IsArrayBufferEv
_ZNK2v85Value13IsMapIteratorEv
_ZNK2v85Value13IsNativeErrorEv
_ZNK2v85Value13IsSetIteratorEv
_ZNK2v85Value13IsUint16ArrayEv
_ZNK2v85Value13IsUint32ArrayEv
_ZNK2v85Value14IsBigIntObjectEv
_ZNK2v85Value14IsFloat16ArrayEv
_ZNK2v85Value14IsFloat32ArrayEv
_ZNK2v85Value14IsFloat64ArrayEv
_ZNK2v85Value14IsNumberObjectEv
_ZNK2v85Value14IsStringObjectEv
_ZNK2v85Value14IsSymbolObjectEv
_ZNK2v85Value15IsBigInt64ArrayEv
_ZNK2v85Value15IsBooleanObjectEv
_ZNK2v85Value16IsBigUint64ArrayEv
_ZNK2v85Value17IsArgumentsObjectEv
_ZNK2v85Value17IsArrayBufferViewEv
_ZNK2v85Value17IsGeneratorObjectEv
_ZNK2v85Value18IsWasmMemoryObjectEv
_ZNK2v85Value18IsWasmModuleObjectEv
_ZNK2v85Value19IsSharedArrayBufferEv
_ZNK2v85Value19IsUint8ClampedArrayEv
_ZNK2v85Value23IsModuleNamespaceObjectEv
_ZNK2v85Value5IsMapEv
_ZNK2v85Value5IsSetEv
_ZNK2v85Value6EqualsENS_5LocalINS_7ContextEEENS1_IS0_EE
_ZNK2v85Value6IsDateEv
_ZNK2v85Value6IsNameEv
_ZNK2v85Value7IsArrayEv
_ZNK2v85Value7IsInt32Ev
_ZNK2v85Value7IsProxyEv
_ZNK2v85Value7ToInt32ENS_5LocalINS_7ContextEEE
_ZNK2v85Value8IsBigIntEv
_ZNK2v85Value8IsNumberEv
_ZNK2v85Value8IsObjectEv
_ZNK2v85Value8IsRegExpEv
_ZNK2v85Value8IsSymbolEv
_ZNK2v85Value8IsUint32Ev
_ZNK2v85Value8ToBigIntENS_5LocalINS_7ContextEEE
_ZNK2v85Value8ToNumberENS_5LocalINS_7ContextEEE
_ZNK2v85Value8ToObjectENS_5LocalINS_7ContextEEE
_ZNK2v85Value8ToStringENS_5LocalINS_7ContextEEE
_ZNK2v85Value8ToUint32ENS_5LocalINS_7ContextEEE
_ZNK2v85Value9IsBooleanEv
_ZNK2v85Value9IsPromiseEv
_ZNK2v85Value9IsWeakMapEv
_ZNK2v85Value9IsWeakSetEv
_ZNK2v85Value9ToBooleanEPNS_7IsolateE
_ZNK2v85Value9ToNumericENS_5LocalINS_7ContextEEE
_ZNK2v86BigInt10Int64ValueEPb
_ZNK2v86BigInt12ToWordsArrayEPiS1_Py
_ZNK2v86BigInt9WordCountEv
_ZNK2v86Module12IsGraphAsyncEv
_ZNK2v86Module15GetIdentityHashEv
_ZNK2v86Module17GetModuleRequestsEv
_ZNK2v86Module18IsSourceTextModuleEv
_ZNK2v86Module22SourceOffsetToLocationEi
_ZNK2v86Module8ScriptIdEv
_ZNK2v86Module9GetStatusEv
_ZNK2v86Number5ValueEv
_ZNK2v86Object10IsCallableEv
_ZNK2v86Object12IsApiWrapperEv
_ZNK2v86Object13IsConstructorEv
_ZNK2v86Object18InternalFieldCountEv
_ZNK2v86RegExp9GetSourceEv
_ZNK2v86Script24GetCompileHintsCollectorEv
_ZNK2v86String11WriteUtf8V2EPNS_7IsolateEPcjiPj
_ZNK2v86String12StringEqualsENS_5LocalIS0_EE
_ZNK2v86String12Utf8LengthV2EPNS_7IsolateE
_ZNK2v86String14WriteOneByteV2EPNS_7IsolateEjjPhi
_ZNK2v86String15CanMakeExternalENS0_8EncodingE
_ZNK2v86String19ContainsOnlyOneByteEv
_ZNK2v86String33GetExternalStringResourceBaseSlowEPNS0_8EncodingE
_ZNK2v86String6LengthEv
_ZNK2v86String7WriteV2EPNS_7IsolateEjjPti
_ZNK2v86String9IsOneByteEv
_ZNK2v86Uint325ValueEv
_ZNK2v87Boolean5ValueEv
_ZNK2v87Integer5ValueEv
_ZNK2v87Isolate10GetCppHeapEv
_ZNK2v87Isolate19GetMicrotasksPolicyEv
_ZNK2v87Isolate9IsCurrentEv
_ZNK2v87Message10ErrorLevelEv
_ZNK2v87Message13GetLineNumberENS_5LocalINS_7ContextEEE
_ZNK2v87Message13GetSourceLineENS_5LocalINS_7ContextEEE
_ZNK2v87Message13GetStackTraceEv
_ZNK2v87Message14GetStartColumnENS_5LocalINS_7ContextEEE
_ZNK2v87Message14GetStartColumnEv
_ZNK2v87Message15GetScriptOriginEv
_ZNK2v87Message19IsSharedCrossOriginEv
_ZNK2v87Message21GetScriptResourceNameEv
_ZNK2v87Message3GetEv
_ZNK2v87Promise10HasHandlerEv
_ZNK2v88External5ValueEt
_ZNK2v88Function11NewInstanceENS_5LocalINS_7ContextEEEiPNS1_INS_5ValueEEE
_ZNK2v88Function12GetDebugNameEv
_ZNK2v88Function15GetScriptOriginEv
_ZNK2v88Function16GetBoundFunctionEv
_ZNK2v88Function17GetScriptLocationEv
_ZNK2v88Function22GetScriptStartPositionEv
_ZNK2v88Function26Experimental_IsNopFunctionEv
_ZNK2v88Function29NewInstanceWithSideEffectTypeENS_5LocalINS_7ContextEEEiPNS1_INS_5ValueEEENS_14SideEffectTypeE
_ZNK2v88Function7GetNameEv
_ZNK2v88Function8ScriptIdEv
_ZNK2v88TryCatch10StackTraceENS_5LocalINS_7ContextEEE
_ZNK2v88TryCatch11CanContinueEv
_ZNK2v88TryCatch13HasTerminatedEv
_ZNK2v88TryCatch7MessageEv
_ZNK2v88TryCatch9ExceptionEv
_ZNK2v88TryCatch9HasCaughtEv
_ZNK4node14PrincipalRealm14process_objectEv
_ZNK5cppgc14LivenessBroker21IsHeapObjectAliveImplEPKv
_ZTHN10openscreen8internal20ScopedTraceOperation7traces_E
_ZN2v811HandleScope16DeleteExtensionsEPNS_7IsolateE
_ZN2v811HandleScope6ExtendEPNS_7IsolateE
_ZN2v812api_internal12ToLocalEmptyEv
_ZN2v812api_internal13DisposeGlobalEPj
_ZN2v812api_internal17FromJustIsNothingEv
_ZN2v812api_internal18GlobalizeReferenceEPNS_8internal7IsolateEj
_ZN2v812api_internal23GetFunctionTemplateDataEPNS_7IsolateENS_5LocalINS_4DataEEE
_ZN2v812api_internal8MakeWeakEPjPvPFvRKNS_16WeakCallbackInfoIvEEENS_16WeakCallbackTypeE
_ZN2v812api_internal9ClearWeakEPj
_ZN2v814ObjectTemplate11NewInstanceENS_5LocalINS_7ContextEEE
_ZN2v814ObjectTemplate21SetInternalFieldCountEi
_ZN2v814ObjectTemplate3NewEPNS_7IsolateENS_5LocalINS_16FunctionTemplateEEE
_ZN2v816FunctionTemplate11GetFunctionENS_5LocalINS_7ContextEEE
_ZN2v816FunctionTemplate3NewEPNS_7IsolateEPFvRKNS_20FunctionCallbackInfoINS_5ValueEEEENS_5LocalIS4_EENSA_INS_9SignatureEEEiNS_19ConstructorBehaviorENS_14SideEffectTypeEPKNS_9CFunctionEttt
_ZN2v85Array3NewEPNS_7IsolateEPNS_5LocalINS_5ValueEEEj
_ZN2v86Object32SetAlignedPointerInInternalFieldEiPvt
_ZN2v86Object3GetENS_5LocalINS_7ContextEEENS1_INS_5ValueEEE
_ZN2v86Object3NewEPNS_7IsolateE
_ZN2v86Object3SetENS_5LocalINS_7ContextEEENS1_INS_5ValueEEES5_
_ZN2v86String11NewFromUtf8EPNS_7IsolateEPKcNS_13NewStringTypeEi
_ZN2v86String9Utf8ValueC1EPNS_7IsolateENS_5LocalINS_5ValueEEE
_ZN2v86String9Utf8ValueD1Ev
_ZN2v87Isolate10GetCurrentEv
_ZN2v87Isolate14ThrowExceptionENS_5LocalINS_5ValueEEE
_ZN2v87Isolate17GetCurrentContextEv
_ZN2v88External3NewEPNS_7IsolateEPvt
_ZN2v88Function4CallENS_5LocalINS_7ContextEEENS1_INS_5ValueEEEiPS5_
_ZN2v88Function7SetNameENS_5LocalINS_6StringEEE
_ZN2v88Template3SetENS_5LocalINS_4NameEEENS1_INS_4DataEEENS_17PropertyAttributeE
_ZN2v89Exception9TypeErrorENS_5LocalINS_6StringEEENS1_INS_5ValueEEE
_ZN3wgt23application_widget_keys16kTizenServiceKeyE
_ZN3wgt5parse15PermissionsInfo3KeyEv
_ZN3wgt5parse18WidgetConfigParser13ParseManifestERKNSt4__Cr10filesystem4pathE
_ZN3wgt5parse18WidgetConfigParserC1Ev
_ZN4node22NodeRuntimeEnvironment11ProcessEmitEPKcS2_
_ZN4node22NodeRuntimeEnvironment19StartServiceRuntimeEiPPcPKcPFvPvE
_ZN6parser14ManifestParserD1Ev
_ZNK2v85Value10IsExternalEv
_ZNK2v85Value10IsFunctionEv
_ZNK2v88External5ValueEt
_ZNK3wgt5parse18WidgetConfigParser15GetManifestDataERKNSt4__Cr12basic_stringIcNS2_11char_traitsIcEENS2_9allocatorIcEEEE
_ZN2v810CpuProfile6DeleteEv
_ZN2v810Int32Array3NewENS_5LocalINS_11ArrayBufferEEEjj
_ZN2v810StackTrace17CurrentStackTraceEPNS_7IsolateEiNS0_17StackTraceOptionsE
_ZN2v810TypedArray6LengthEv
_ZN2v810Uint8Array3NewENS_5LocalINS_11ArrayBufferEEEjj
_ZN2v811ArrayBuffer15GetBackingStoreEv
_ZN2v811ArrayBuffer15NewBackingStoreEPNS_7IsolateEjNS_30BackingStoreInitializationModeENS_25BackingStoreOnFailureModeE
_ZN2v811ArrayBuffer15NewBackingStoreEPvjPFvS1_jS1_ES1_
_ZN2v811ArrayBuffer3NewEPNS_7IsolateENSt4__Cr10shared_ptrINS_12BackingStoreEEE
_ZN2v811ArrayBuffer3NewEPNS_7IsolateEjNS_30BackingStoreInitializationModeE
_ZN2v811ArrayBuffer6DetachENS_5LocalINS_5ValueEEE
_ZN2v811ArrayBuffer9Allocator19NewDefaultAllocatorEv
_ZN2v811CpuProfiler38UseDetailedSourcePositionsForProfilingEPNS_7IsolateE
_ZN2v811CpuProfiler3NewEPNS_7IsolateENS_22CpuProfilingNamingModeENS_23CpuProfilingLoggingModeE
_ZN2v811CpuProfiler4StopEj
_ZN2v811CpuProfiler5StartENS_19CpuProfilingOptionsENSt4__Cr10unique_ptrINS_24DiscardedSamplesDelegateENS2_14default_deleteIS4_EEEE
_ZN2v811CpuProfiler7DisposeEv
_ZN2v811HandleScope16DeleteExtensionsEPNS_7IsolateE
_ZN2v811HandleScope6ExtendEPNS_7IsolateE
_ZN2v811Uint32Array3NewENS_5LocalINS_11ArrayBufferEEEjj
_ZN2v812BackingStoreD1Ev
_ZN2v812Float64Array3NewENS_5LocalINS_11ArrayBufferEEEjj
_ZN2v812HeapProfiler12QueryObjectsENS_5LocalINS_7ContextEEEPNS_20QueryObjectPredicateEPNSt4__Cr6vectorINS_6GlobalINS_6ObjectEEENS6_9allocatorISA_EEEE
_ZN2v812HeapProfiler16TakeHeapSnapshotERKNS0_19HeapSnapshotOptionsE
_ZN2v812HeapProfiler20GetAllocationProfileEv
_ZN2v812HeapProfiler24StopSamplingHeapProfilerEv
_ZN2v812HeapProfiler25StartSamplingHeapProfilerEyiNS0_13SamplingFlagsE
_ZN2v812HeapProfiler29AddBuildEmbedderGraphCallbackEPFvPNS_7IsolateEPNS_13EmbedderGraphEPvES5_
_ZN2v812HeapProfiler32RemoveBuildEmbedderGraphCallbackEPFvPNS_7IsolateEPNS_13EmbedderGraphEPvES5_
_ZN2v812HeapSnapshot6DeleteEv
_ZN2v812IsolateGroup10GetDefaultEv
_ZN2v812IsolateGroup18CanCreateNewGroupsEv
_ZN2v812IsolateGroup6CreateEv
_ZN2v812IsolateGroupD1Ev
_ZN2v812api_internal10EternalizeEPNS_7IsolateEPNS_5ValueE
_ZN2v812api_internal12ToLocalEmptyEv
_ZN2v812api_internal13DisposeGlobalEPj
_ZN2v812api_internal17FromJustIsNothingEv
_ZN2v812api_internal18GlobalizeReferenceEPNS_8internal7IsolateEj
_ZN2v812api_internal19MoveGlobalReferenceEPPjS2_
_ZN2v812api_internal23GetFunctionTemplateDataEPNS_7IsolateENS_5LocalINS_4DataEEE
_ZN2v812api_internal8MakeWeakEPPj
_ZN2v812api_internal8MakeWeakEPjPvPFvRKNS_16WeakCallbackInfoIvEEENS_16WeakCallbackTypeE
_ZN2v812api_internal9ClearWeakEPj
_ZN2v813BigInt64Array3NewENS_5LocalINS_11ArrayBufferEEEjj
_ZN2v813CFunctionInfoC2ERKNS_9CTypeInfoEjPS2_NS0_19Int64RepresentationE
_ZN2v813RegisterStateC1Ev
_ZN2v813RegisterStateD1Ev
_ZN2v813UnboundScript12GetSourceURLEv
_ZN2v813UnboundScript19GetSourceMappingURLEv
_ZN2v813UnboundScript20BindToCurrentContextEv
_ZN2v813WasmStreaming15OnBytesReceivedEPKhj
_ZN2v813WasmStreaming5AbortENS_10MaybeLocalINS_5ValueEEE
_ZN2v813WasmStreaming6FinishERKNSt4__Cr8functionIFvRNS0_22ModuleCachingInterfaceEEEE
_ZN2v813WasmStreaming6SetUrlEPKcj
_ZN2v813WasmStreaming6UnpackEPNS_7IsolateENS_5LocalINS_5ValueEEE
_ZN2v814HeapStatisticsC1Ev
_ZN2v814MicrotaskQueue3NewEPNS_7IsolateENS_16MicrotasksPolicyE
_ZN2v814ObjectTemplate10SetHandlerERKNS_33NamedPropertyHandlerConfigurationE
_ZN2v814ObjectTemplate10SetHandlerERKNS_35IndexedPropertyHandlerConfigurationE
_ZN2v814ObjectTemplate11NewInstanceENS_5LocalINS_7ContextEEE
_ZN2v814ObjectTemplate21SetInternalFieldCountEi
_ZN2v814ObjectTemplate3NewEPNS_7IsolateENS_5LocalINS_16FunctionTemplateEEE
_ZN2v814PrimitiveArray3NewEPNS_7IsolateEi
_ZN2v814PrimitiveArray3SetEPNS_7IsolateEiNS_5LocalINS_9PrimitiveEEE
_ZN2v814ScriptCompiler10CachedDataC1EPKhiNS1_12BufferPolicyE
_ZN2v814ScriptCompiler10CachedDataD1Ev
_ZN2v814ScriptCompiler13CompileModuleEPNS_7IsolateEPNS0_6SourceENS0_14CompileOptionsENS0_13NoCacheReasonE
_ZN2v814ScriptCompiler15CompileFunctionENS_5LocalINS_7ContextEEEPNS0_6SourceEjPNS1_INS_6StringEEEjPNS1_INS_6ObjectEEENS0_14CompileOptionsENS0_13NoCacheReasonE
_ZN2v814ScriptCompiler15CreateCodeCacheENS_5LocalINS_13UnboundScriptEEE
_ZN2v814ScriptCompiler15CreateCodeCacheENS_5LocalINS_19UnboundModuleScriptEEE
_ZN2v814ScriptCompiler20CachedDataVersionTagEv
_ZN2v814ScriptCompiler20CompileUnboundScriptEPNS_7IsolateEPNS0_6SourceENS0_14CompileOptionsENS0_13NoCacheReasonE
_ZN2v814ScriptCompiler20ConsumeCodeCacheTaskD1Ev
_ZN2v814ScriptCompiler26CreateCodeCacheForFunctionENS_5LocalINS_8FunctionEEE
_ZN2v815ArrayBufferView10ByteLengthEv
_ZN2v815ArrayBufferView10ByteOffsetEv
_ZN2v815ArrayBufferView12CopyContentsEPvj
_ZN2v815ArrayBufferView6BufferEv
_ZN2v815SealHandleScopeC1EPNS_7IsolateE
_ZN2v815SealHandleScopeD1Ev
_ZN2v815SnapshotCreator7AddDataENS_5LocalINS_7ContextEEEj
_ZN2v815SnapshotCreatorC1EPNS_7IsolateERKNS1_12CreateParamsE
_ZN2v815SnapshotCreatorD1Ev
_ZN2v815ValueSerializer10WriteValueENS_5LocalINS_7ContextEEENS1_INS_5ValueEEE
_ZN2v815ValueSerializer11WriteDoubleEd
_ZN2v815ValueSerializer11WriteHeaderEv
_ZN2v815ValueSerializer11WriteUint32Ej
_ZN2v815ValueSerializer11WriteUint64Ey
_ZN2v815ValueSerializer13WriteRawBytesEPKvj
_ZN2v815ValueSerializer19TransferArrayBufferEjNS_5LocalINS_11ArrayBufferEEE
_ZN2v815ValueSerializer37SetTreatArrayBufferViewsAsHostObjectsEb
_ZN2v815ValueSerializer7ReleaseEv
_ZN2v815ValueSerializer8Delegate12IsHostObjectEPNS_7IsolateENS_5LocalINS_6ObjectEEE
_ZN2v815ValueSerializer8Delegate15WriteHostObjectEPNS_7IsolateENS_5LocalINS_6ObjectEEE
_ZN2v815ValueSerializer8Delegate16FreeBufferMemoryEPv
_ZN2v815ValueSerializer8Delegate19HasCustomHostObjectEPNS_7IsolateE
_ZN2v815ValueSerializer8Delegate22GetSharedArrayBufferIdEPNS_7IsolateENS_5LocalINS_17SharedArrayBufferEEE
_ZN2v815ValueSerializer8Delegate22ReallocateBufferMemoryEPvjPj
_ZN2v815ValueSerializer8Delegate23GetWasmModuleTransferIdEPNS_7IsolateENS_5LocalINS_16WasmModuleObjectEEE
_ZN2v815ValueSerializer8Delegate24AdoptSharedValueConveyorEPNS_7IsolateEONS_19SharedValueConveyorE
_ZN2v815ValueSerializerC1EPNS_7IsolateEPNS0_8DelegateE
_ZN2v815ValueSerializerD1Ev
_ZN2v816FunctionTemplate11GetFunctionENS_5LocalINS_7ContextEEE
_ZN2v816FunctionTemplate11HasInstanceENS_5LocalINS_5ValueEEE
_ZN2v816FunctionTemplate12SetClassNameENS_5LocalINS_6StringEEE
_ZN2v816FunctionTemplate16InstanceTemplateEv
_ZN2v816FunctionTemplate17PrototypeTemplateEv
_ZN2v816FunctionTemplate17ReadOnlyPrototypeEv
_ZN2v816FunctionTemplate25NewWithCFunctionOverloadsEPNS_7IsolateEPFvRKNS_20FunctionCallbackInfoINS_5ValueEEEENS_5LocalIS4_EENSA_INS_9SignatureEEEiNS_19ConstructorBehaviorENS_14SideEffectTypeERKNS_10MemorySpanIKNS_9CFunctionEEE
_ZN2v816FunctionTemplate3NewEPNS_7IsolateEPFvRKNS_20FunctionCallbackInfoINS_5ValueEEEENS_5LocalIS4_EENSA_INS_9SignatureEEEiNS_19ConstructorBehaviorENS_14SideEffectTypeEPKNS_9CFunctionEttt
_ZN2v816FunctionTemplate7InheritENS_5LocalIS0_EE
_ZN2v816FunctionTemplate9SetLengthEi
_ZN2v816WasmMemoryObject6BufferEv
_ZN2v816WasmModuleObject17GetCompiledModuleEv
_ZN2v816WasmModuleObject18FromCompiledModuleEPNS_7IsolateERKNS_18CompiledWasmModuleE
_ZN2v817SharedArrayBuffer15GetBackingStoreEv
_ZN2v817SharedArrayBuffer3NewEPNS_7IsolateENSt4__Cr10shared_ptrINS_12BackingStoreEEE
_ZN2v817SharedArrayBuffer8MaybeNewEPNS_7IsolateEjNS_30BackingStoreInitializationModeE
_ZN2v817ValueDeserializer10ReadDoubleEPd
_ZN2v817ValueDeserializer10ReadHeaderENS_5LocalINS_7ContextEEE
_ZN2v817ValueDeserializer10ReadUint32EPj
_ZN2v817ValueDeserializer10ReadUint64EPy
_ZN2v817ValueDeserializer12ReadRawBytesEjPPKv
_ZN2v817ValueDeserializer19TransferArrayBufferEjNS_5LocalINS_11ArrayBufferEEE
_ZN2v817ValueDeserializer25TransferSharedArrayBufferEjNS_5LocalINS_17SharedArrayBufferEEE
_ZN2v817ValueDeserializer8Delegate14ReadHostObjectEPNS_7IsolateE
_ZN2v817ValueDeserializer8Delegate19GetWasmModuleFromIdEPNS_7IsolateEj
_ZN2v817ValueDeserializer8Delegate22GetSharedValueConveyorEPNS_7IsolateE
_ZN2v817ValueDeserializer8Delegate26GetSharedArrayBufferFromIdEPNS_7IsolateEj
_ZN2v817ValueDeserializer9ReadValueENS_5LocalINS_7ContextEEE
_ZN2v817ValueDeserializerC1EPNS_7IsolateEPKhjPNS0_8DelegateE
_ZN2v817ValueDeserializerD1Ev
_ZN2v818DictionaryTemplate11NewInstanceENS_5LocalINS_7ContextEEENS_10MemorySpanINS_10MaybeLocalINS_5ValueEEEEE
_ZN2v818DictionaryTemplate3NewEPNS_7IsolateENS_10MemorySpanIKNSt4__Cr17basic_string_viewIcNS4_11char_traitsIcEEEEEE
_ZN2v818HeapCodeStatisticsC1Ev
_ZN2v818PropertyDescriptor14set_enumerableEb
_ZN2v818PropertyDescriptor16set_configurableEb
_ZN2v818PropertyDescriptorC1ENS_5LocalINS_5ValueEEE
_ZN2v818PropertyDescriptorC1ENS_5LocalINS_5ValueEEES3_
_ZN2v818PropertyDescriptorC1ENS_5LocalINS_5ValueEEEb
_ZN2v818PropertyDescriptorD1Ev
_ZN2v819CpuProfilingOptionsC1ENS_16CpuProfilingModeEjiNS_10MaybeLocalINS_7ContextEEENS_16CpuProfileSourceE
_ZN2v819HeapSpaceStatisticsC1Ev
_ZN2v819ResourceConstraints17ConfigureDefaultsEyy
_ZN2v819SharedValueConveyorC1EOS0_
_ZN2v819SharedValueConveyorD1Ev
_ZN2v819UnboundModuleScript12GetSourceURLEv
_ZN2v819UnboundModuleScript19GetSourceMappingURLEv
_ZN2v820ToExternalPointerTagEt
_ZN2v821MeasureMemoryDelegate7DefaultEPNS_7IsolateENS_5LocalINS_7ContextEEENS3_INS_7Promise8ResolverEEENS_17MeasureMemoryModeE
_ZN2v823ExternalMemoryAccounter6UpdateEPNS_7IsolateEx
_ZN2v823ExternalMemoryAccounter8DecreaseEPNS_7IsolateEj
_ZN2v823ExternalMemoryAccounter8IncreaseEPNS_7IsolateEj
_ZN2v823ExternalMemoryAccounterD1Ev
_ZN2v824EscapableHandleScopeBase10EscapeSlotEPj
_ZN2v824EscapableHandleScopeBaseC2EPNS_7IsolateE
_ZN2v829TryHandleWebAssemblyTrapPosixEiP9siginfo_tPv
_ZN2v82V810GetVersionEv
_ZN2v82V810InitializeEi
_ZN2v82V815DisposePlatformEv
_ZN2v82V818InitializePlatformEPNS_8PlatformE
_ZN2v82V818SetFlagsFromStringEPKc
_ZN2v82V818SetFlagsFromStringEPKcj
_ZN2v82V823SetFlagsFromCommandLineEPiPPcb
_ZN2v82V828EnableWebAssemblyTrapHandlerEb
_ZN2v82V829InitializeExternalStartupDataEPKc
_ZN2v82V87DisposeEv
_ZN2v83Map3GetENS_5LocalINS_7ContextEEENS1_INS_5ValueEEE
_ZN2v83Map3NewEPNS_7IsolateE
_ZN2v83Map3SetENS_5LocalINS_7ContextEEENS1_INS_5ValueEEES5_
_ZN2v83Map6DeleteENS_5LocalINS_7ContextEEENS1_INS_5ValueEEE
_ZN2v83Set3AddENS_5LocalINS_7ContextEEENS1_INS_5ValueEEE
_ZN2v83Set3NewEPNS_7IsolateE
_ZN2v84Date3NewENS_5LocalINS_7ContextEEEd
_ZN2v84JSON9StringifyENS_5LocalINS_7ContextEEENS1_INS_5ValueEEENS1_INS_6StringEEE
_ZN2v84Name15GetIdentityHashEv
_ZN2v85Array3NewENS_5LocalINS_7ContextEEEjNSt4__Cr8functionIFNS_10MaybeLocalINS_5ValueEEEvEEE
_ZN2v85Array3NewEPNS_7IsolateEPNS_5LocalINS_5ValueEEEj
_ZN2v85Array3NewEPNS_7IsolateEi
_ZN2v85Array7IterateENS_5LocalINS_7ContextEEEPFNS0_14CallbackResultEjNS1_INS_5ValueEEEPvES7_
_ZN2v85Proxy10GetHandlerEv
_ZN2v85Proxy9GetTargetEv
_ZN2v85Value6TypeOfEPNS_7IsolateE
_ZN2v86BigInt15NewFromUnsignedEPNS_7IsolateEy
_ZN2v86BigInt3NewEPNS_7IsolateEx
_ZN2v86Locker10InitializeEPNS_7IsolateE
_ZN2v86LockerD1Ev
_ZN2v86Module17InstantiateModuleENS_5LocalINS_7ContextEEEPFNS_10MaybeLocalIS0_EES3_NS1_INS_6StringEEENS1_INS_10FixedArrayEEENS1_IS0_EEEPFNS4_INS_6ObjectEEES3_S7_S9_SA_E
_ZN2v86Module18GetModuleNamespaceEv
_ZN2v86Module21CreateSyntheticModuleEPNS_7IsolateENS_5LocalINS_6StringEEERKNS_10MemorySpanIKS5_EEPFNS_10MaybeLocalINS_5ValueEEENS3_INS_7ContextEEENS3_IS0_EEE
_ZN2v86Module22GetUnboundModuleScriptEv
_ZN2v86Module24SetSyntheticModuleExportEPNS_7IsolateENS_5LocalINS_6StringEEENS3_INS_5ValueEEE
_ZN2v86Module31GetStalledTopLevelAwaitMessagesEPNS_7IsolateE
_ZN2v86Module8EvaluateENS_5LocalINS_7ContextEEE
_ZN2v86Number12NewFromInt32EPNS_7IsolateEi
_ZN2v86Number13NewFromUint32EPNS_7IsolateEj
_ZN2v86Number3NewEPNS_7IsolateEd
_ZN2v86Object10GetPrivateENS_5LocalINS_7ContextEEENS1_INS_7PrivateEEE
_ZN2v86Object10HasPrivateENS_5LocalINS_7ContextEEENS1_INS_7PrivateEEE
_ZN2v86Object10SetPrivateENS_5LocalINS_7ContextEEENS1_INS_7PrivateEEENS1_INS_5ValueEEE
_ZN2v86Object13DeletePrivateENS_5LocalINS_7ContextEEENS1_INS_7PrivateEEE
_ZN2v86Object14DefinePropertyENS_5LocalINS_7ContextEEENS1_INS_4NameEEERNS_18PropertyDescriptorE
_ZN2v86Object14GetPrototypeV2Ev
_ZN2v86Object14HasOwnPropertyENS_5LocalINS_7ContextEEENS1_INS_4NameEEE
_ZN2v86Object14PreviewEntriesEPb
_ZN2v86Object14SetPrototypeV2ENS_5LocalINS_7ContextEEENS1_INS_5ValueEEE
_ZN2v86Object16GetPropertyNamesENS_5LocalINS_7ContextEEENS_17KeyCollectionModeENS_14PropertyFilterENS_11IndexFilterENS_17KeyConversionModeE
_ZN2v86Object16SetInternalFieldEiNS_5LocalINS_4DataEEE
_ZN2v86Object17DefineOwnPropertyENS_5LocalINS_7ContextEEENS1_INS_4NameEEENS1_INS_5ValueEEENS_17PropertyAttributeE
_ZN2v86Object17SetIntegrityLevelENS_5LocalINS_7ContextEEENS_14IntegrityLevelE
_ZN2v86Object18GetConstructorNameEv
_ZN2v86Object18GetCreationContextEv
_ZN2v86Object19GetOwnPropertyNamesENS_5LocalINS_7ContextEEE
_ZN2v86Object19SetLazyDataPropertyENS_5LocalINS_7ContextEEENS1_INS_4NameEEEPFvS5_RKNS_20PropertyCallbackInfoINS_5ValueEEEENS1_IS7_EENS_17PropertyAttributeENS_14SideEffectTypeESF_
_ZN2v86Object20GetRealNamedPropertyENS_5LocalINS_7ContextEEENS1_INS_4NameEEE
_ZN2v86Object20HasRealNamedPropertyENS_5LocalINS_7ContextEEENS1_INS_4NameEEE
_ZN2v86Object20SlowGetInternalFieldEi
_ZN2v86Object21SetNativeDataPropertyENS_5LocalINS_7ContextEEENS1_INS_4NameEEEPFvS5_RKNS_20PropertyCallbackInfoINS_5ValueEEEEPFvS5_NS1_IS7_EERKNS6_IvEEESD_NS_17PropertyAttributeENS_14SideEffectTypeESK_
_ZN2v86Object24GetOwnPropertyDescriptorENS_5LocalINS_7ContextEEENS1_INS_4NameEEE
_ZN2v86Object25GetCreationContextCheckedEv
_ZN2v86Object30GetRealNamedPropertyAttributesENS_5LocalINS_7ContextEEENS1_INS_4NameEEE
_ZN2v86Object32SetAlignedPointerInInternalFieldEiPvt
_ZN2v86Object38SlowGetAlignedPointerFromInternalFieldEit
_ZN2v86Object3GetENS_5LocalINS_7ContextEEENS1_INS_5ValueEEE
_ZN2v86Object3GetENS_5LocalINS_7ContextEEEj
_ZN2v86Object3HasENS_5LocalINS_7ContextEEENS1_INS_5ValueEEE
_ZN2v86Object3NewEPNS_7IsolateE
_ZN2v86Object3NewEPNS_7IsolateENS_5LocalINS_5ValueEEEPNS3_INS_4NameEEEPS5_j
_ZN2v86Object3SetENS_5LocalINS_7ContextEEENS1_INS_5ValueEEES5_
_ZN2v86Object3SetENS_5LocalINS_7ContextEEEjNS1_INS_5ValueEEE
_ZN2v86Object4WrapEPNS_7IsolateEjNS_17CppHeapPointerTagEPv
_ZN2v86Object5CloneEv
_ZN2v86Object6DeleteENS_5LocalINS_7ContextEEENS1_INS_5ValueEEE
_ZN2v86Object6DeleteENS_5LocalINS_7ContextEEEj
_ZN2v86RegExp3NewENS_5LocalINS_7ContextEEENS1_INS_6StringEEENS0_5FlagsE
_ZN2v86RegExp4ExecENS_5LocalINS_7ContextEEENS1_INS_6StringEEE
_ZN2v86Script3RunENS_5LocalINS_7ContextEEE
_ZN2v86Script7CompileENS_5LocalINS_7ContextEEENS1_INS_6StringEEEPNS_12ScriptOriginE
_ZN2v86String11NewFromUtf8EPNS_7IsolateEPKcNS_13NewStringTypeEi
_ZN2v86String14NewFromOneByteEPNS_7IsolateEPKhNS_13NewStringTypeEi
_ZN2v86String14NewFromTwoByteEPNS_7IsolateEPKtNS_13NewStringTypeEi
_ZN2v86String18NewExternalOneByteEPNS_7IsolateEPNS0_29ExternalOneByteStringResourceE
_ZN2v86String18NewExternalTwoByteEPNS_7IsolateEPNS0_22ExternalStringResourceE
_ZN2v86String18NewFromUtf8LiteralEPNS_7IsolateEPKcNS_13NewStringTypeEi
_ZN2v86String6ConcatEPNS_7IsolateENS_5LocalIS0_EES4_
_ZN2v86String9Utf8ValueC1EPNS_7IsolateENS_5LocalINS_5ValueEEE
_ZN2v86String9Utf8ValueD1Ev
_ZN2v86String9ValueViewC1EPNS_7IsolateENS_5LocalIS0_EE
_ZN2v86String9ValueViewD1Ev
_ZN2v86Symbol10GetDisposeEPNS_7IsolateE
_ZN2v86Symbol11GetIteratorEPNS_7IsolateE
_ZN2v86Symbol14GetToStringTagEPNS_7IsolateE
_ZN2v86Symbol3ForEPNS_7IsolateENS_5LocalINS_6StringEEE
_ZN2v86Symbol3NewEPNS_7IsolateENS_5LocalINS_6StringEEE
_ZN2v87Context12FromSnapshotEPNS_7IsolateEjNS_33DeserializeInternalFieldsCallbackEPNS_22ExtensionConfigurationENS_10MaybeLocalINS_5ValueEEEPNS_14MicrotaskQueueENS_30DeserializeContextDataCallbackENS_29DeserializeAPIWrapperCallbackE
_ZN2v87Context15SetEmbedderDataEiNS_5LocalINS_5ValueEEE
_ZN2v87Context15SetPromiseHooksENS_5LocalINS_8FunctionEEES3_S3_S3_
_ZN2v87Context16GetSecurityTokenEv
_ZN2v87Context16SetSecurityTokenENS_5LocalINS_5ValueEEE
_ZN2v87Context17GetMicrotaskQueueEv
_ZN2v87Context22GetExtrasBindingObjectEv
_ZN2v87Context23GetDataFromSnapshotOnceEj
_ZN2v87Context29GetNumberOfEmbedderDataFieldsEv
_ZN2v87Context30AllowCodeGenerationFromStringsEb
_ZN2v87Context31SetAlignedPointerInEmbedderDataEiPvt
_ZN2v87Context3NewEPNS_7IsolateEPNS_22ExtensionConfigurationENS_10MaybeLocalINS_14ObjectTemplateEEENS5_INS_5ValueEEENS_33DeserializeInternalFieldsCallbackEPNS_14MicrotaskQueueENS_30DeserializeContextDataCallbackENS_29DeserializeAPIWrapperCallbackE
_ZN2v87Context4ExitEv
_ZN2v87Context5EnterEv
_ZN2v87Context6GlobalEv
_ZN2v87CppHeap17CollectStatisticsEN5cppgc14HeapStatistics11DetailLevelE
_ZN2v87CppHeap19GetAllocationHandleEv
_ZN2v87CppHeap6CreateEPNS_8PlatformERKNS_19CppHeapCreateParamsE
_ZN2v87Integer15NewFromUnsignedEPNS_7IsolateEj
_ZN2v87Integer3NewEPNS_7IsolateEi
_ZN2v87Isolate10GetCurrentEv
_ZN2v87Isolate10InitializeEPS0_RKNS0_12CreateParamsE
_ZN2v87Isolate11GetHashSeedEv
_ZN2v87Isolate12CreateParamsC1Ev
_ZN2v87Isolate12CreateParamsD1Ev
_ZN2v87Isolate12DeinitializeEv
_ZN2v87Isolate13MeasureMemoryENSt4__Cr10unique_ptrINS_21MeasureMemoryDelegateENS1_14default_deleteIS3_EEEENS_22MeasureMemoryExecutionE
_ZN2v87Isolate13SetStackLimitEj
_ZN2v87Isolate13TryGetCurrentEv
_ZN2v87Isolate14GetStackSampleERKNS_13RegisterStateEPPvjPNS_10SampleInfoE
_ZN2v87Isolate14SetPromiseHookEPFvNS_15PromiseHookTypeENS_5LocalINS_7PromiseEEENS2_INS_5ValueEEEE
_ZN2v87Isolate14ThrowExceptionENS_5LocalINS_5ValueEEE
_ZN2v87Isolate15GetHeapProfilerEv
_ZN2v87Isolate16ClearKeptObjectsEv
_ZN2v87Isolate16GetDefaultLocaleEv
_ZN2v87Isolate16RequestInterruptEPFvPS0_PvES2_
_ZN2v87Isolate17DumpAndResetStatsEv
_ZN2v87Isolate17GetCurrentContextEv
_ZN2v87Isolate17GetHeapStatisticsEPNS_14HeapStatisticsE
_ZN2v87Isolate18NumberOfHeapSpacesEv
_ZN2v87Isolate18SetOOMErrorHandlerEPFvPKcRKNS_10OOMDetailsEE
_ZN2v87Isolate18TerminateExecutionEv
_ZN2v87Isolate19SetMicrotasksPolicyENS_16MicrotasksPolicyE
_ZN2v87Isolate20SetFatalErrorHandlerEPFvPKcS2_E
_ZN2v87Isolate21AddGCEpilogueCallbackEPFvPS0_NS_6GCTypeENS_15GCCallbackFlagsEPvES4_S2_
_ZN2v87Isolate21AddGCPrologueCallbackEPFvPS0_NS_6GCTypeENS_15GCCallbackFlagsEPvES4_S2_
_ZN2v87Isolate21LowMemoryNotificationEv
_ZN2v87Isolate22GetHeapSpaceStatisticsEPNS_19HeapSpaceStatisticsEj
_ZN2v87Isolate22IsExecutionTerminatingEv
_ZN2v87Isolate23GetDataFromSnapshotOnceEj
_ZN2v87Isolate24AddNearHeapLimitCallbackEPFjPvjjES1_
_ZN2v87Isolate24CancelTerminateExecutionEv
_ZN2v87Isolate24RemoveGCEpilogueCallbackEPFvPS0_NS_6GCTypeENS_15GCCallbackFlagsEPvES4_
_ZN2v87Isolate24RemoveGCPrologueCallbackEPFvPS0_NS_6GCTypeENS_15GCCallbackFlagsEPvES4_
_ZN2v87Isolate24SetPromiseRejectCallbackEPFvNS_20PromiseRejectMessageEE
_ZN2v87Isolate24SetWasmStreamingCallbackEPFvRKNS_20FunctionCallbackInfoINS_5ValueEEEE
_ZN2v87Isolate27RemoveNearHeapLimitCallbackEPFjPvjjEj
_ZN2v87Isolate28SetPrepareStackTraceCallbackEPFNS_10MaybeLocalINS_5ValueEEENS_5LocalINS_7ContextEEENS4_IS2_EENS4_INS_5ArrayEEEE
_ZN2v87Isolate29AllowJavascriptExecutionScopeC1EPS0_
_ZN2v87Isolate29AllowJavascriptExecutionScopeD1Ev
_ZN2v87Isolate32AddMessageListenerWithErrorLevelEPFvNS_5LocalINS_7MessageEEENS1_INS_5ValueEEEEiS5_
_ZN2v87Isolate32DisallowJavascriptExecutionScopeC1EPS0_NS1_9OnFailureE
_ZN2v87Isolate32DisallowJavascriptExecutionScopeD1Ev
_ZN2v87Isolate32GetHeapCodeAndMetadataStatisticsEPNS_18HeapCodeStatisticsE
_ZN2v87Isolate34SetAllowWasmCodeGenerationCallbackEPFbNS_5LocalINS_7ContextEEENS1_INS_6StringEEEE
_ZN2v87Isolate35SetAbortOnUncaughtExceptionCallbackEPFbPS0_E
_ZN2v87Isolate36AutomaticallyRestoreInitialHeapLimitEd
_ZN2v87Isolate36GetContinuationPreservedEmbedderDataEv
_ZN2v87Isolate36SetContinuationPreservedEmbedderDataENS_5LocalINS_5ValueEEE
_ZN2v87Isolate38SetHostImportModuleDynamicallyCallbackEPFNS_10MaybeLocalINS_7PromiseEEENS_5LocalINS_7ContextEEENS4_INS_4DataEEENS4_INS_5ValueEEENS4_INS_6StringEEENS4_INS_10FixedArrayEEEE
_ZN2v87Isolate39DateTimeConfigurationChangeNotificationENS0_17TimeZoneDetectionE
_ZN2v87Isolate39SetHostCreateShadowRealmContextCallbackEPFNS_10MaybeLocalINS_7ContextEEENS_5LocalIS2_EEE
_ZN2v87Isolate41SetCaptureStackTraceForUncaughtExceptionsEbiNS_10StackTrace17StackTraceOptionsE
_ZN2v87Isolate41SetHostInitializeImportMetaObjectCallbackEPFvNS_5LocalINS_7ContextEEENS1_INS_6ModuleEEENS1_INS_6ObjectEEEE
_ZN2v87Isolate42SetModifyCodeGenerationFromStringsCallbackEPFNS_37ModifyCodeGenerationFromStringsResultENS_5LocalINS_7ContextEEENS2_INS_5ValueEEEbE
_ZN2v87Isolate47SetHostImportModuleWithPhaseDynamicallyCallbackEPFNS_10MaybeLocalINS_7PromiseEEENS_5LocalINS_7ContextEEENS4_INS_4DataEEENS4_INS_5ValueEEENS4_INS_6StringEEENS_17ModuleImportPhaseENS4_INS_10FixedArrayEEEE
_ZN2v87Isolate4ExitEv
_ZN2v87Isolate4FreeEPS0_
_ZN2v87Isolate5EnterEv
_ZN2v87Isolate7SetIdleEb
_ZN2v87Isolate8AllocateERKNS_12IsolateGroupE
_ZN2v87Isolate9InContextEv
_ZN2v87Private3NewEPNS_7IsolateENS_5LocalINS_6StringEEE
_ZN2v87Private6ForApiEPNS_7IsolateENS_5LocalINS_6StringEEE
_ZN2v87Promise13MarkAsHandledEv
_ZN2v87Promise4ThenENS_5LocalINS_7ContextEEENS1_INS_8FunctionEEES5_
_ZN2v87Promise5StateEv
_ZN2v87Promise6ResultEv
_ZN2v87Promise8Resolver10GetPromiseEv
_ZN2v87Promise8Resolver3NewENS_5LocalINS_7ContextEEE
_ZN2v87Promise8Resolver6RejectENS_5LocalINS_7ContextEEENS2_INS_5ValueEEE
_ZN2v87Promise8Resolver7ResolveENS_5LocalINS_7ContextEEENS2_INS_5ValueEEE
_ZN2v88External3NewEPNS_7IsolateEPvt
_ZN2v88Function3NewENS_5LocalINS_7ContextEEEPFvRKNS_20FunctionCallbackInfoINS_5ValueEEEENS1_INS_4DataEEEiNS_19ConstructorBehaviorENS_14SideEffectTypeE
_ZN2v88Function4CallENS_5LocalINS_7ContextEEENS1_INS_5ValueEEEiPS5_
_ZN2v88Function7SetNameENS_5LocalINS_6StringEEE
_ZN2v88Platform21SystemClockTimeMillisEv
_ZN2v88Template19SetAccessorPropertyENS_5LocalINS_4NameEEENS1_INS_16FunctionTemplateEEES5_NS_17PropertyAttributeE
_ZN2v88Template19SetLazyDataPropertyENS_5LocalINS_4NameEEEPFvS3_RKNS_20PropertyCallbackInfoINS_5ValueEEEENS1_IS5_EENS_17PropertyAttributeENS_14SideEffectTypeESD_
_ZN2v88Template21SetNativeDataPropertyENS_5LocalINS_4NameEEEPFvS3_RKNS_20PropertyCallbackInfoINS_5ValueEEEEPFvS3_NS1_IS5_EERKNS4_IvEEESB_NS_17PropertyAttributeENS_14SideEffectTypeESI_
_ZN2v88Template3SetENS_5LocalINS_4NameEEENS1_INS_4DataEEENS_17PropertyAttributeE
_ZN2v88TryCatch10SetVerboseEb
_ZN2v88TryCatch5ResetEv
_ZN2v88TryCatch7ReThrowEv
_ZN2v88TryCatchC1EPNS_7IsolateE
_ZN2v88TryCatchC2EPNS_7IsolateE
_ZN2v88TryCatchD1Ev
_ZN2v88TryCatchD2Ev
_ZN2v88internal18ShouldThrowOnErrorEPNS0_7IsolateE
_ZN2v88internal19MoveTracedReferenceEPPjS2_
_ZN2v88internal22DisposeTracedReferenceEPj
_ZN2v88internal24GlobalizeTracedReferenceEPNS0_7IsolateEjPjNS0_24TracedReferenceStoreModeENS0_23TracedReferenceHandlingE
_ZN2v88internal9Internals17GetCurrentIsolateEv
_ZN2v89CFunctionC1EPKvPKNS_13CFunctionInfoE
_ZN2v89Exception10RangeErrorENS_5LocalINS_6StringEEENS1_INS_5ValueEEE
_ZN2v89Exception11SyntaxErrorENS_5LocalINS_6StringEEENS1_INS_5ValueEEE
_ZN2v89Exception13CreateMessageEPNS_7IsolateENS_5LocalINS_5ValueEEE
_ZN2v89Exception5ErrorENS_5LocalINS_6StringEEENS1_INS_5ValueEEE
_ZN2v89Exception9TypeErrorENS_5LocalINS_6StringEEENS1_INS_5ValueEEE
_ZN2v89Signature3NewEPNS_7IsolateENS_5LocalINS_16FunctionTemplateEEE
_ZN5cppgc13IsInitializedEv
_ZN5cppgc15ShutdownProcessEv
_ZN5cppgc17InitializeProcessEPN2v813PageAllocatorEj
_ZN5cppgc8internal16PersistentRegion16IsCreationThreadEv
_ZN5cppgc8internal20PersistentRegionBase29RefillFreeListAndAllocateNodeEPvPFvRNS0_11RootVisitorEPKvE
_ZN5cppgc8internal20WeakPersistentPolicy19GetPersistentRegionEPKv
_ZN5cppgc8internal22EnsureGCInfoIndexTrait17EnsureGCInfoIndexERNSt4__Cr6atomicItEEPFvPNS_7VisitorEPKvEPFvPvEPFNS0_14HeapObjectNameES9_NS0_30HeapObjectNameForUnnamedObjectEE
_ZN5cppgc8internal30TraceTraitFromInnerAddressImpl18GetTraceDescriptorEPKv
_ZN5cppgc8internal33MakeGarbageCollectedTraitInternal8AllocateERNS_16AllocationHandleEjt
_ZN5cppgc8internal9FatalImplEPKcN2v814SourceLocationE
_ZNK2v810CpuProfile9SerializeEPNS_12OutputStreamENS0_19SerializationFormatE
_ZNK2v810FixedArray3GetEi
_ZNK2v810FixedArray6LengthEv
_ZNK2v810StackFrame11GetLocationEv
_ZNK2v810StackFrame11GetScriptIdEv
_ZNK2v810StackFrame13GetScriptNameEv
_ZNK2v810StackFrame15GetFunctionNameEv
_ZNK2v810StackFrame24GetScriptNameOrSourceURLEv
_ZNK2v810StackFrame6IsEvalEv
_ZNK2v810StackTrace13GetFrameCountEv
_ZNK2v810StackTrace8GetFrameEPNS_7IsolateEj
_ZNK2v811ArrayBuffer10ByteLengthEv
_ZNK2v811ArrayBuffer11WasDetachedEv
_ZNK2v811ArrayBuffer12IsDetachableEv
_ZNK2v811ArrayBuffer4DataEv
_ZNK2v812BackingStore10ByteLengthEv
_ZNK2v812BackingStore13MaxByteLengthEv
_ZNK2v812BackingStore4DataEv
_ZNK2v812HeapSnapshot9SerializeEPNS_12OutputStreamENS0_19SerializationFormatE
_ZNK2v812ScriptOrigin24VerifyHostDefinedOptionsEv
_ZNK2v813ModuleRequest12GetSpecifierEv
_ZNK2v813ModuleRequest19GetImportAttributesEv
_ZNK2v813ModuleRequest8GetPhaseEv
_ZNK2v815ArrayBufferView9HasBufferEv
_ZNK2v817SharedArrayBuffer10ByteLengthEv
_ZNK2v817SharedArrayBuffer4DataEv
_ZNK2v817ValueDeserializer20GetWireFormatVersionEv
_ZNK2v818PropertyDescriptor10enumerableEv
_ZNK2v818PropertyDescriptor12configurableEv
_ZNK2v818PropertyDescriptor12has_writableEv
_ZNK2v818PropertyDescriptor14has_enumerableEv
_ZNK2v818PropertyDescriptor16has_configurableEv
_ZNK2v818PropertyDescriptor3getEv
_ZNK2v818PropertyDescriptor3setEv
_ZNK2v818PropertyDescriptor5valueEv
_ZNK2v818PropertyDescriptor7has_getEv
_ZNK2v818PropertyDescriptor7has_setEv
_ZNK2v818PropertyDescriptor8writableEv
_ZNK2v818PropertyDescriptor9has_valueEv
_ZNK2v83Map4SizeEv
_ZNK2v84Data7IsValueEv
_ZNK2v85Array6LengthEv
_ZNK2v85Int325ValueEv
_ZNK2v85Value10FullIsTrueEv
_ZNK2v85Value10Int32ValueENS_5LocalINS_7ContextEEE
_ZNK2v85Value10IsDataViewEv
_ZNK2v85Value10IsExternalEv
_ZNK2v85Value10IsFunctionEv
_ZNK2v85Value11FullIsFalseEv
_ZNK2v85Value11NumberValueENS_5LocalINS_7ContextEEE
_ZNK2v85Value11Uint32ValueENS_5LocalINS_7ContextEEE
_ZNK2v85Value12BooleanValueEPNS_7IsolateE
_ZNK2v85Value12IntegerValueENS_5LocalINS_7ContextEEE
_ZNK2v85Value12IsTypedArrayEv
_ZNK2v85Value12IsUint8ArrayEv
_ZNK2v85Value12StrictEqualsENS_5LocalIS0_EE
_ZNK2v85Value13IsArrayBufferEv
_ZNK2v85Value13IsMapIteratorEv
_ZNK2v85Value13IsNativeErrorEv
_ZNK2v85Value13IsSetIteratorEv
_ZNK2v85Value13IsUint32ArrayEv
_ZNK2v85Value14IsBigIntObjectEv
_ZNK2v85Value14IsFloat64ArrayEv
_ZNK2v85Value14IsNumberObjectEv
_ZNK2v85Value14IsStringObjectEv
_ZNK2v85Value14IsSymbolObjectEv
_ZNK2v85Value14ToDetailStringENS_5LocalINS_7ContextEEE
_ZNK2v85Value15IsAsyncFunctionEv
_ZNK2v85Value15IsBooleanObjectEv
_ZNK2v85Value17IsArgumentsObjectEv
_ZNK2v85Value17IsArrayBufferViewEv
_ZNK2v85Value17IsGeneratorObjectEv
_ZNK2v85Value18IsWasmMemoryObjectEv
_ZNK2v85Value19IsGeneratorFunctionEv
_ZNK2v85Value19IsSharedArrayBufferEv
_ZNK2v85Value23IsModuleNamespaceObjectEv
_ZNK2v85Value5IsMapEv
_ZNK2v85Value5IsSetEv
_ZNK2v85Value6EqualsENS_5LocalINS_7ContextEEENS1_IS0_EE
_ZNK2v85Value6IsDateEv
_ZNK2v85Value7IsArrayEv
_ZNK2v85Value7IsInt32Ev
_ZNK2v85Value7IsProxyEv
_ZNK2v85Value8IsBigIntEv
_ZNK2v85Value8IsNumberEv
_ZNK2v85Value8IsObjectEv
_ZNK2v85Value8IsRegExpEv
_ZNK2v85Value8IsSymbolEv
_ZNK2v85Value8IsUint32Ev
_ZNK2v85Value8ToObjectENS_5LocalINS_7ContextEEE
_ZNK2v85Value8ToStringENS_5LocalINS_7ContextEEE
_ZNK2v85Value9IsBooleanEv
_ZNK2v85Value9IsPromiseEv
_ZNK2v85Value9IsWeakMapEv
_ZNK2v85Value9IsWeakSetEv
_ZNK2v85Value9SameValueENS_5LocalIS0_EE
_ZNK2v85Value9ToBooleanEPNS_7IsolateE
_ZNK2v86BigInt10Int64ValueEPb
_ZNK2v86BigInt11Uint64ValueEPb
_ZNK2v86Module12GetExceptionEv
_ZNK2v86Module12IsGraphAsyncEv
_ZNK2v86Module15GetIdentityHashEv
_ZNK2v86Module16HasTopLevelAwaitEv
_ZNK2v86Module17GetModuleRequestsEv
_ZNK2v86Module18IsSourceTextModuleEv
_ZNK2v86Module9GetStatusEv
_ZNK2v86Number5ValueEv
_ZNK2v86Object13IsConstructorEv
_ZNK2v86Object18InternalFieldCountEv
_ZNK2v86String11WriteUtf8V2EPNS_7IsolateEPcjiPj
_ZNK2v86String12Utf8LengthV2EPNS_7IsolateE
_ZNK2v86String14WriteOneByteV2EPNS_7IsolateEjjPhi
_ZNK2v86String17IsExternalOneByteEv
_ZNK2v86String17IsExternalTwoByteEv
_ZNK2v86String29GetExternalStringResourceSlowEv
_ZNK2v86String32GetExternalOneByteStringResourceEv
_ZNK2v86String6LengthEv
_ZNK2v86String7WriteV2EPNS_7IsolateEjjPti
_ZNK2v86String9IsOneByteEv
_ZNK2v86Symbol11DescriptionEPNS_7IsolateE
_ZNK2v86Uint325ValueEv
_ZNK2v87Boolean5ValueEv
_ZNK2v87Context34IsCodeGenerationFromStringsAllowedEv
_ZNK2v87Integer5ValueEv
_ZNK2v87Isolate10GetCppHeapEv
_ZNK2v87Message10ErrorLevelEv
_ZNK2v87Message12GetEndColumnENS_5LocalINS_7ContextEEE
_ZNK2v87Message13GetLineNumberENS_5LocalINS_7ContextEEE
_ZNK2v87Message13GetSourceLineENS_5LocalINS_7ContextEEE
_ZNK2v87Message13GetStackTraceEv
_ZNK2v87Message14GetStartColumnENS_5LocalINS_7ContextEEE
_ZNK2v87Message14GetStartColumnEv
_ZNK2v87Message15GetScriptOriginEv
_ZNK2v87Message21GetScriptResourceNameEv
_ZNK2v87Message3GetEv
_ZNK2v88External5ValueEt
_ZNK2v88Function11NewInstanceENS_5LocalINS_7ContextEEEiPNS1_INS_5ValueEEE
_ZNK2v88Function15GetScriptOriginEv
_ZNK2v88TryCatch11CanContinueEv
_ZNK2v88TryCatch13HasTerminatedEv
_ZNK2v88TryCatch7MessageEv
_ZNK2v88TryCatch9ExceptionEv
_ZNK2v88TryCatch9HasCaughtEv
_ZNK2v88TryCatch9IsVerboseEv
_ZNK5cppgc14LivenessBroker21IsHeapObjectAliveImplEPKv
_ZTHN2v88internal12trap_handler16TrapHandlerGuard10is_active_E
_ZN3wgt5parse10WidgetInfo3KeyB5cxx11Ev
_ZN3wgt5parse11ContentInfo3KeyB5cxx11Ev
_ZN3wgt5parse11ServiceInfo3KeyB5cxx11Ev
_ZN3wgt5parse11SettingInfo3KeyB5cxx11Ev
_ZN3wgt5parse11SettingInfoC1Ev
_ZN3wgt5parse12MetaDataInfo3KeyB5cxx11Ev
_ZN3wgt5parse14AppControlInfo3KeyB5cxx11Ev
_ZN3wgt5parse14ProfileTagInfo3KeyB5cxx11Ev
_ZN3wgt5parse15PermissionsInfo3KeyB5cxx11Ev
_ZN3wgt5parse16CategoryInfoList3KeyB5cxx11Ev
_ZN3wgt5parse16LaunchScreenInfo3KeyB5cxx11Ev
_ZN3wgt5parse18WidgetConfigParser13ParseManifestERKNSt10filesystem7__cxx114pathE
_ZN3wgt5parse18WidgetConfigParserC1Ev
_ZN3wgt5parse20TizenApplicationInfo3KeyB5cxx11Ev
_ZN3wgt5parse21AllowedNavigationInfo3KeyB5cxx11Ev
_ZN3wgt5parse7CSPInfo15Report_only_keyB5cxx11Ev
_ZN3wgt5parse7CSPInfo3KeyB5cxx11Ev
_ZN3wgt5parse8WarpInfo3KeyB5cxx11Ev
_ZN3wgt5parse9AddonInfo3KeyB5cxx11Ev
_ZN6parser14ManifestParserD1Ev
_ZNK3wgt5parse18WidgetConfigParser15GetManifestDataERKNSt7__cxx1112basic_stringIcSt11char_traitsIcESaIcEEE
_ZNKSt10filesystem7__cxx114path5_List13_Impl_deleterclEPNS2_5_ImplE
_ZNKSt9type_infoeqERKS_
_ZNSt10filesystem7__cxx114path14_M_split_cmptsEv
_ZNSt10filesystem7__cxx114path5_ListC1Ev
_ZNSt7__cxx1112basic_stringIcSt11char_traitsIcESaIcEE10_M_disposeEv
_ZNSt7__cxx1112basic_stringIcSt11char_traitsIcESaIcEE9_M_createERjj
_ZSt18_Rb_tree_incrementPKSt18_Rb_tree_node_base
_ZTVN10__cxxabiv117__class_type_infoE
_ZTVN10__cxxabiv120__si_class_type_infoE
_ZdaPv
_ZdlPvj
_Znaj
_Znwj
